(dp0
S'to_messages'
p1
cnumpy.core.multiarray
scalar
p2
(cnumpy
dtype
p3
(S'f8'
p4
I0
I1
tp5
Rp6
(I3
S'<'
p7
NNNI-1
I-1
I0
tp8
bS'\x00\x00\x00\x00\x00 d@'
p9
tp10
Rp11
sS'deferral_payments'
p12
g2
(g6
S'UUUUU\xe5b@'
p13
tp14
Rp15
sVexecut
p16
g2
(g6
S'TUUUUuc@'
p17
tp18
Rp19
sVrosali
p20
g2
(g6
S'\xa8\xaa\xaa\xaa\xaaze@'
p21
tp22
Rp23
sS'expenses'
p24
g2
(g6
S'\x00\x00\x00\x00\x00@c@'
p25
tp26
Rp27
sVtaylorhouectect
p28
g2
(g6
S'WUUUU\xc5c@'
p29
tp30
Rp31
sS'log_expenses'
p32
g2
(g6
S'UUUUUud@'
p33
tp34
Rp35
sVnonprivilegedpst
p36
g2
(g6
S'\x00\x00\x00\x00\x00\xd0d@'
p37
tp38
Rp39
sVflemingcorpenronenron
p40
g2
(g6
S'TUUUU\xc5d@'
p41
tp42
Rp43
sVcharlen
p44
g2
(g6
S'SUUUU%d@'
p45
tp46
Rp47
sV134
p48
g2
(g6
S'\xab\xaa\xaa\xaa\xaa\xcac@'
p49
tp50
Rp51
sS'deferred_income'
p52
g2
(g6
S'\x00\x00\x00\x00\x00\xd0a@'
p53
tp54
Rp55
sVddelainnsf
p56
g2
(g6
S'TUUUU\x95c@'
p57
tp58
Rp59
sS'from_poi_to_this_person'
p60
g2
(g6
S'\xfe\xff\xff\xff\xff\xbfd@'
p61
tp62
Rp63
sVbest
p64
g2
(g6
S'TUUUUud@'
p65
tp66
Rp67
sS'exercised_stock_options*expenses'
p68
g2
(g6
S'\xff\xff\xff\xff\xff\x9fe@'
p69
tp70
Rp71
sVrobust
p72
g2
(g6
S'\xab\xaa\xaa\xaa\xaazd@'
p73
tp74
Rp75
sVlet
p76
g2
(g6
S'\x00\x00\x00\x00\x000c@'
p77
tp78
Rp79
sVene
p80
g2
(g6
S'\x00\x00\x00\x00\x00@e@'
p81
tp82
Rp83
sS'log_exercised_stock_options'
p84
g2
(g6
S'\x01\x00\x00\x00\x00``@'
p85
tp86
Rp87
sVbroadband
p88
g2
(g6
S'UUUUUee@'
p89
tp90
Rp91
sVopen
p92
g2
(g6
S'WUUUU\xb5a@'
p93
tp94
Rp95
sVcalgerpdxect
p96
g2
(g6
S'\xcd\xcc\xcc\xcc\xcc\x8cd@'
p97
tp98
Rp99
sVgwhall
p100
g2
(g6
S'\xaa\xaa\xaa\xaa\xaaJd@'
p101
tp102
Rp103
sS'shared_receipt_with_poi'
p104
g2
(g6
S'xwwww\x87b@'
p105
tp106
Rp107
sVtim
p108
g2
(g6
S'\xff\xff\xff\xff\xff\x0fd@'
p109
tp110
Rp111
sS'from_messages'
p112
g2
(g6
S'\xab\xaa\xaa\xaa\xaa\x9ac@'
p113
tp114
Rp115
sS'other'
p116
g2
(g6
S'SUUUUuh@'
p117
tp118
Rp119
sVlegals
p120
g2
(g6
S'\xab\xaa\xaa\xaa\xaa\xfad@'
p121
tp122
Rp123
sVboard
p124
g2
(g6
S'VUUUU%c@'
p125
tp126
Rp127
sV62602pst
p128
g2
(g6
S'\xff\xff\xff\xff\xff\x9fd@'
p129
tp130
Rp131
sVjohnfowlersuncom
p132
g2
(g6
S'\xaa\xaa\xaa\xaa\xaa\xcac@'
p133
tp134
Rp135
sS'long_term_incentive'
p136
g2
(g6
S'#""""\xf2`@'
p137
tp138
Rp139
sVeveri
p140
g2
(g6
S'VUUUU%c@'
p141
tp142
Rp143
sVkennethlayenroncom
p144
g2
(g6
S'\xab\xaa\xaa\xaa\xaa\xeac@'
p145
tp146
Rp147
sVmayberryjpg
p148
g2
(g6
S'\xab\xaa\xaa\xaa\xaa\ne@'
p149
tp150
Rp151
sS'bonus'
p152
g2
(g6
S'\x00\x00\x00\x00\x00\xa0d@'
p153
tp154
Rp155
sVcalgerpdxectect
p156
g2
(g6
S'!""""rd@'
p157
tp158
Rp159
sVandypst
p160
g2
(g6
S'UUUUU\xd5c@'
p161
tp162
Rp163
sS'total_stock_value'
p164
g2
(g6
S'VUUUU\xc5d@'
p165
tp166
Rp167
sVklay
p168
g2
(g6
S'UUUUU\xa5c@'
p169
tp170
Rp171
sV0949
p172
g2
(g6
S'UUUUU\xc5b@'
p173
tp174
Rp175
sVgwhalleynsf
p176
g2
(g6
S'\x00\x00\x00\x00\x00\x10d@'
p177
tp178
Rp179
sVcorp
p180
g2
(g6
S'%""""Rb@'
p181
tp182
Rp183
sS'expenses^2'
p184
g2
(g6
S'\xfe\xff\xff\xff\xff/e@'
p185
tp186
Rp187
sVviolationnotif
p188
g2
(g6
S'\xab\xaa\xaa\xaa\xaajc@'
p189
tp190
Rp191
sVgeorgeann
p192
g2
(g6
S'\xab\xaa\xaa\xaa\xaa*d@'
p193
tp194
Rp195
sVsouthwood
p196
g2
(g6
S'\xaa\xaa\xaa\xaa\xaa\xaac@'
p197
tp198
Rp199
sS'salary'
p200
g2
(g6
S'\xaa\xaa\xaa\xaa\xaa\xeab@'
p201
tp202
Rp203
sVphilipp
p204
g2
(g6
S'\xfe\xff\xff\xff\xff\x1fd@'
p205
tp206
Rp207
sS'total_payments'
p208
g2
(g6
S'\x00\x00\x00\x00\x00pe@'
p209
tp210
Rp211
sVtjonesnsf
p212
g2
(g6
S'UUUUUed@'
p213
tp214
Rp215
sV31769
p216
g2
(g6
S'\xab\xaa\xaa\xaa\xaa:d@'
p217
tp218
Rp219
sS'exercised_stock_options^2'
p220
g2
(g6
S'\x01\x00\x00\x00\x00\x10c@'
p221
tp222
Rp223
sVspreadsheet
p224
g2
(g6
S'\x00\x00\x00\x00\x00\xb0c@'
p225
tp226
Rp227
sS'exercised_stock_options'
p228
g2
(g6
S'\xff\xff\xff\xff\xff\x9fd@'
p229
tp230
Rp231
sV5034643735
p232
g2
(g6
S'\x01\x00\x00\x00\x00Pd@'
p233
tp234
Rp235
sVcommitte
p236
g2
(g6
S'vwwww\xb7e@'
p237
tp238
Rp239
sVparti
p240
g2
(g6
S'UUUUU\xf5c@'
p241
tp242
Rp243
sVhotlin
p244
g2
(g6
S'\xaa\xaa\xaa\xaa\xaa\xead@'
p245
tp246
Rp247
sVembed
p248
g2
(g6
S'\xa9\xaa\xaa\xaa\xaa\xbae@'
p249
tp250
Rp251
sVprestohouectect
p252
g2
(g6
S'\xff\xff\xff\xff\xff/e@'
p253
tp254
Rp255
sVguy
p256
g2
(g6
S'UUUUUEd@'
p257
tp258
Rp259
sVview
p260
g2
(g6
S'\xab\xaa\xaa\xaa\xaa\xcab@'
p261
tp262
Rp263
s.