(dp0
S'salary'
p1
cnumpy.core.multiarray
scalar
p2
(cnumpy
dtype
p3
(S'f8'
p4
I0
I1
tp5
Rp6
(I3
S'<'
p7
NNNI-1
I-1
I0
tp8
bS'\x04\x00\x00\x00\x00`^@'
p9
tp10
Rp11
sS'to_messages'
p12
g2
(g6
S'VUUUU5[@'
p13
tp14
Rp15
sS'deferral_payments'
p16
g2
(g6
S'\xad\xaa\xaa\xaa\xaaj[@'
p17
tp18
Rp19
sS'total_payments'
p20
g2
(g6
S'{wwwww^@'
p21
tp22
Rp23
sS'bonus'
p24
g2
(g6
S'\xb0\xaa\xaa\xaa\xaa\xaa\\@'
p25
tp26
Rp27
sS'total_stock_value'
p28
g2
(g6
S'\xaf\xaa\xaa\xaa\xaa\xea^@'
p29
tp30
Rp31
sS'shared_receipt_with_poi'
p32
g2
(g6
S'\x03\x00\x00\x00\x00\xe0[@'
p33
tp34
Rp35
sS'from_poi_to_this_person'
p36
g2
(g6
S'\xae\xaa\xaa\xaa\xaa*Y@'
p37
tp38
Rp39
sS'exercised_stock_options'
p40
g2
(g6
S'\x9c\x99\x99\x99\x99\xf9Z@'
p41
tp42
Rp43
sS'from_messages'
p44
g2
(g6
S'\x9d\x99\x99\x99\x99\xb9\\@'
p45
tp46
Rp47
sS'other'
p48
g2
(g6
S'WUUUUU^@'
p49
tp50
Rp51
sS'from_this_person_to_poi'
p52
g2
(g6
S'[UUUU\xf5^@'
p53
tp54
Rp55
sS'deferred_income'
p56
g2
(g6
S'\xae\xaa\xaa\xaa\xaa\x8a\\@'
p57
tp58
Rp59
sS'expenses'
p60
g2
(g6
S'\xb0\xaa\xaa\xaa\xaa\n\\@'
p61
tp62
Rp63
sS'restricted_stock'
p64
g2
(g6
S'\x01\x00\x00\x00\x00 _@'
p65
tp66
Rp67
sS'long_term_incentive'
p68
g2
(g6
S'\x04\x00\x00\x00\x00@\\@'
p69
tp70
Rp71
s.