(lp0
(Vtim
p1
cnumpy.core.multiarray
scalar
p2
(cnumpy
dtype
p3
(S'f8'
p4
I0
I1
tp5
Rp6
(I3
S'<'
p7
NNNI-1
I-1
I0
tp8
bS'?\x1f\n\xd7M\xa7\xa2?'
p9
tp10
Rp11
tp12
a(Vboard
p13
g2
(g6
S'\x06\x7f\xa2-y\x90\xa2?'
p14
tp15
Rp16
tp17
a(Vembed
p18
g2
(g6
S'\x8br\x13\x94Zz\xa2?'
p19
tp20
Rp21
tp22
a(Vopen
p23
g2
(g6
S'D6\x04)fy\xa2?'
p24
tp25
Rp26
tp27
a(Vnonprivilegedpst
p28
g2
(g6
S'\xbb\x04*\x80\xc9t\xa2?'
p29
tp30
Rp31
tp32
a(Vklay
p33
g2
(g6
S')(\x11\xf7\xa0\x99\x92?'
p34
tp35
Rp36
tp37
a(Vtaylorhouectect
p38
g2
(g6
S'\xf6p\x9c\x95\xde\x92\x92?'
p39
tp40
Rp41
tp42
a(Vgwhalleynsf
p43
g2
(g6
S'!\xd4\xc6\xe1\xd6\x84\x92?'
p44
tp45
Rp46
tp47
a(V62602pst
p48
g2
(g6
S'X\x1a\x1a\x1b\x96\x84\x92?'
p49
tp50
Rp51
tp52
a(Vgeorgeann
p53
g2
(g6
S'.\xd5\x16dX\x81\x92?'
p54
tp55
Rp56
tp57
a(Vddelainnsf
p58
g2
(g6
S'\xac\xfa\x85\xf2\xd2\x80\x92?'
p59
tp60
Rp61
tp62
a(Vene
p63
g2
(g6
S'wDM\xa3h\x80\x92?'
p64
tp65
Rp66
tp67
a(Vtjonesnsf
p68
g2
(g6
S';\xfd.\x1b2\x7f\x92?'
p69
tp70
Rp71
tp72
a(Vcalgerpdxectect
p73
g2
(g6
S'l\xf3zr\xfc~\x92?'
p74
tp75
Rp76
tp77
a(Vandypst
p78
g2
(g6
S'\xc3U\x8d\xe0\xe0~\x92?'
p79
tp80
Rp81
tp82
a(Vcalgerpdxect
p83
g2
(g6
S'\xfe1[\x05e~\x92?'
p84
tp85
Rp86
tp87
a(Vhotlin
p88
g2
(g6
S'E\xde\x8d\xdci}\x92?'
p89
tp90
Rp91
tp92
a(Vbroadband
p93
g2
(g6
S'\x1cv\xa9L }\x92?'
p94
tp95
Rp96
tp97
a(Vsouthwood
p98
g2
(g6
S'?\xea\x06g\x01}\x92?'
p99
tp100
Rp101
tp102
a(Vmayberryjpg
p103
g2
(g6
S'Q\x7f^\x9d\xfc{\x92?'
p104
tp105
Rp106
tp107
a(Vparti
p108
g2
(g6
S'o\xd4\x0er\xab{\x92?'
p109
tp110
Rp111
tp112
a(Vflemingcorpenronenron
p113
g2
(g6
S'W\x1f)`\x98z\x92?'
p114
tp115
Rp116
tp117
a(Vphilipp
p118
g2
(g6
S'\xf5Y$\xf6\x10z\x92?'
p119
tp120
Rp121
tp122
a(Vrosali
p123
g2
(g6
S'j\x031\xb0\xd8x\x92?'
p124
tp125
Rp126
tp127
a(Vcorp
p128
g2
(g6
S'\xb4o\xec\xd3\xa0x\x92?'
p129
tp130
Rp131
tp132
a(Veveri
p133
g2
(g6
S'\x02\xe9\x17L}x\x92?'
p134
tp135
Rp136
tp137
a(Vkennethlayenroncom
p138
g2
(g6
S'A\x92QQ<x\x92?'
p139
tp140
Rp141
tp142
a(Vexecut
p143
g2
(g6
S'\xb2`\x01\r/x\x92?'
p144
tp145
Rp146
tp147
a(V0949
p148
g2
(g6
S"\r\xed\xe2\xe5'w\x92?"
p149
tp150
Rp151
tp152
a(Vjohnfowlersuncom
p153
g2
(g6
S'\xd3\x16N\xbf\tw\x92?'
p154
tp155
Rp156
tp157
a(V31769
p158
g2
(g6
S'P*\xf98Uv\x92?'
p159
tp160
Rp161
tp162
a(Vbest
p163
g2
(g6
S'\xc5+\xbb\xb0=v\x92?'
p164
tp165
Rp166
tp167
a(Vgwhall
p168
g2
(g6
S'\x00\xd61\x07\x12v\x92?'
p169
tp170
Rp171
tp172
a(V5034643735
p173
g2
(g6
S'\x1a\xccs}\xcdu\x92?'
p174
tp175
Rp176
tp177
a(Vspreadsheet
p178
g2
(g6
S'\x08\xb0W\xa4\x83u\x92?'
p179
tp180
Rp181
tp182
a(V134
p183
g2
(g6
S'Dg\x85i\xa8t\x92?'
p184
tp185
Rp186
tp187
a(Vviolationnotif
p188
g2
(g6
S'\xa8Y-\xcb\x8bs\x92?'
p189
tp190
Rp191
tp192
a(Vlet
p193
g2
(g6
S'\x8d~\t\xc0\xebr\x92?'
p194
tp195
Rp196
tp197
a(Vrobust
p198
g2
(g6
S'\xb3-f\xa4\xb0r\x92?'
p199
tp200
Rp201
tp202
a(Vlegals
p203
g2
(g6
S'e(\x8b@\xa8r\x92?'
p204
tp205
Rp206
tp207
a(Vcommitte
p208
g2
(g6
S'?\x84R\xefir\x92?'
p209
tp210
Rp211
tp212
a(Vprestohouectect
p213
g2
(g6
S'\xeey\x12>\xd2p\x92?'
p214
tp215
Rp216
tp217
a(Vguy
p218
g2
(g6
S'9\x05d\xf9:p\x92?'
p219
tp220
Rp221
tp222
a(Vcharlen
p223
g2
(g6
S'\xc3R;s\x9do\x92?'
p224
tp225
Rp226
tp227
a(Vview
p228
g2
(g6
S'!<\xda\xe0\xb1n\x92?'
p229
tp230
Rp231
tp232
a.