(lp0
(Vdave
p1
cnumpy.core.multiarray
scalar
p2
(cnumpy
dtype
p3
(S'f8'
p4
I0
I1
tp5
Rp6
(I3
S'<'
p7
NNNI-1
I-1
I0
tp8
bS'Z:k\x94\xd8z\xa2?'
p9
tp10
Rp11
tp12
a(Vview
p13
g2
(g6
S'\xe4L4\x06\xb5\x93\x92?'
p14
tp15
Rp16
tp17
a(Vcolwel
p18
g2
(g6
S'\x1bwXk\x05\x92\x92?'
p19
tp20
Rp21
tp22
a(Vjderricnsf
p23
g2
(g6
S'7\xd6\x9cf\x1c\x8f\x92?'
p24
tp25
Rp26
tp27
a(Vphenomen
p28
g2
(g6
S'I\x07}\x8f\xaa\x85\x92?'
p29
tp30
Rp31
tp32
a(Vdate
p33
g2
(g6
S'\x9aL\xb0\x16\x8f\x84\x92?'
p34
tp35
Rp36
tp37
a(Vrieker
p38
g2
(g6
S'I\xa9\xc3\x16a\x84\x92?'
p39
tp40
Rp41
tp42
a(Vdelainey
p43
g2
(g6
S'\xa6;[)\xfa\x83\x92?'
p44
tp45
Rp46
tp47
a(Venw
p48
g2
(g6
S'R\xed\x95am\x82\x92?'
p49
tp50
Rp51
tp52
a(V24
p53
g2
(g6
S'Yu\x1baj\x80\x92?'
p54
tp55
Rp56
tp57
a(V13002pst
p58
g2
(g6
S'\x13\xc0q\xd9,\x80\x92?'
p59
tp60
Rp61
tp62
a(Vroom
p63
g2
(g6
S'\x01\x8bS\xcf\r\x80\x92?'
p64
tp65
Rp66
tp67
a(Vfeedbacksupport
p68
g2
(g6
S'\xd4\xc4\xba\x918\x7f\x92?'
p69
tp70
Rp71
tp72
a(Vbelden
p73
g2
(g6
S'\x88\x8aZ%#~\x92?'
p74
tp75
Rp76
tp77
a(Vschedul
p78
g2
(g6
S'Fg\x03a\xd0|\x92?'
p79
tp80
Rp81
tp82
a(Vklay
p83
g2
(g6
S'\x14n]\xc74|\x92?'
p84
tp85
Rp86
tp87
a(Vpictur
p88
g2
(g6
S'e\xc3k\x01\x03|\x92?'
p89
tp90
Rp91
tp92
a(Vdoug
p93
g2
(g6
S'<\x85\xcdC\xca{\x92?'
p94
tp95
Rp96
tp97
a(Vfund
p98
g2
(g6
S'\t\xee\xa3G\xbe{\x92?'
p99
tp100
Rp101
tp102
a(Vfirstcallnotestfncom
p103
g2
(g6
S'\xde<\x07mT{\x92?'
p104
tp105
Rp106
tp107
a(V7138535984
p108
g2
(g6
S'*\xee?\n\x02{\x92?'
p109
tp110
Rp111
tp112
a(Vregard
p113
g2
(g6
S'\xf4\x99-aRz\x92?'
p114
tp115
Rp116
tp117
a(Vmemo
p118
g2
(g6
S'\xbbF~r"z\x92?'
p119
tp120
Rp121
tp122
a(Vmorton
p123
g2
(g6
S'\x92\xb6l\xf2\xaby\x92?'
p124
tp125
Rp126
tp127
a(V75
p128
g2
(g6
S'\xf2\x83\x85a\xa0y\x92?'
p129
tp130
Rp131
tp132
a(V506
p133
g2
(g6
S'\x90\xf9\xbf1\xa0y\x92?'
p134
tp135
Rp136
tp137
a(Veast
p138
g2
(g6
S'\xa8\xdb\xef8\xe0w\x92?'
p139
tp140
Rp141
tp142
a(V2702pst
p143
g2
(g6
S'Z{;\x9c\xacw\x92?'
p144
tp145
Rp146
tp147
a(Vparticip
p148
g2
(g6
S'\xcboX\xc8Ow\x92?'
p149
tp150
Rp151
tp152
a(Vjdasov
p153
g2
(g6
S'\xe2\x9ff`\xf7v\x92?'
p154
tp155
Rp156
tp157
a(Vsun
p158
g2
(g6
S'\x9e\x07\xd1\x8bnv\x92?'
p159
tp160
Rp161
tp162
a(V614
p163
g2
(g6
S'&\x18^\x82Sv\x92?'
p164
tp165
Rp166
tp167
a(Vpublish
p168
g2
(g6
S'PU4\xbd\xe2u\x92?'
p169
tp170
Rp171
tp172
a(Vmmcconnnsf
p173
g2
(g6
S'\xd1\xe7\x9d{\xddu\x92?'
p174
tp175
Rp176
tp177
a(Vcommitte
p178
g2
(g6
S'\xd0\xe9\x9a\xcf\x83u\x92?'
p179
tp180
Rp181
tp182
a(Vsteve
p183
g2
(g6
S'!;\xda\x8a5u\x92?'
p184
tp185
Rp186
tp187
a(V77002
p188
g2
(g6
S'\xe1X\x97\x85\tu\x92?'
p189
tp190
Rp191
tp192
a(Vtour
p193
g2
(g6
S'\xe0\x99\xff\x0b\x97t\x92?'
p194
tp195
Rp196
tp197
a(Vgwhalleynsf
p198
g2
(g6
S':\xeaX\x9eFt\x92?'
p199
tp200
Rp201
tp202
a(Vhannonenron
p203
g2
(g6
S'\x07\xa4\xd6B\xd1s\x92?'
p204
tp205
Rp206
tp207
a(V0844
p208
g2
(g6
S'oA7~\x9bs\x92?'
p209
tp210
Rp211
tp212
a(Vrbuynsf
p213
g2
(g6
S'\xf8\x9d\xb8DAr\x92?'
p214
tp215
Rp216
tp217
a(Vddelain2enroncom
p218
g2
(g6
S'u\x86\xc7\xf1\x02q\x92?'
p219
tp220
Rp221
tp222
a(Vcp
p223
g2
(g6
S'\xcc\x82\xdb\t\xf3o\x92?'
p224
tp225
Rp226
tp227
a(Variba
p228
g2
(g6
S'=#\xda\xe1\xb9o\x92?'
p229
tp230
Rp231
tp232
a(Vchristoph
p233
g2
(g6
S'>\xb4\xe2\xf1\x8eo\x92?'
p234
tp235
Rp236
tp237
a(Vdebra
p238
g2
(g6
S'\xda\xff\x18\xb0\xc0n\x92?'
p239
tp240
Rp241
tp242
a.