ccopy_reg
_reconstructor
p0
(csklearn.pipeline
Pipeline
p1
c__builtin__
object
p2
Ntp3
Rp4
(dp5
S'steps'
p6
(lp7
(S'kbest'
p8
g0
(csklearn.feature_selection.univariate_selection
SelectKBest
p9
g2
Ntp10
Rp11
(dp12
S'k'
p13
I13
sS'score_func'
p14
csklearn.feature_selection.univariate_selection
f_classif
p15
sbtp16
a(S'pca'
p17
g0
(csklearn.decomposition.pca
PCA
p18
g2
Ntp19
Rp20
(dp21
S'copy'
p22
I01
sS'n_components'
p23
I9
sS'whiten'
p24
I00
sbtp25
a(S'adabst'
p26
g0
(csklearn.ensemble.weight_boosting
AdaBoostClassifier
p27
g2
Ntp28
Rp29
(dp30
S'base_estimator'
p31
g0
(csklearn.tree.tree
DecisionTreeClassifier
p32
g2
Ntp33
Rp34
(dp35
S'splitter'
p36
S'best'
p37
sS'tree_'
p38
NsS'n_features_'
p39
NsS'n_outputs_'
p40
NsS'n_classes_'
p41
NsS'classes_'
p42
NsS'splitter_'
p43
NsS'min_samples_leaf'
p44
I1
sS'max_features'
p45
NsS'random_state'
p46
NsS'criterion'
p47
S'gini'
p48
sS'min_samples_split'
p49
I2
sS'max_depth'
p50
I1
sbsS'estimators_'
p51
(lp52
sS'algorithm'
p53
S'SAMME.R'
p54
sS'learning_rate'
p55
F1.0
sS'n_estimators'
p56
I10
sg46
NsS'estimator_params'
p57
(tsbtp58
asS'named_steps'
p59
(dp60
g26
g29
sg17
g20
sg8
g11
ssb.