(dp0
S'METTS MARK'
p1
(dp2
S'expenses'
p3
F94299.0
sS'log_expenses'
p4
F11.45422586411145
sS'poi'
p5
I00
sS'deferred_income'
p6
Fnan
sS'email_address'
p7
S'mark.metts@enron.com'
p8
sS'from_poi_to_this_person'
p9
F38.0
sS'exercised_stock_options*expenses'
p10
Fnan
sS'log_exercised_stock_options'
p11
Fnan
sS'shared_receipt_with_poi'
p12
F702.0
sS'other'
p13
F1740.0
sS'long_term_incentive'
p14
Fnan
sVcdwr
p15
F0.37298471354695023
sS'bonus'
p16
F600000.0
sS'total_stock_value'
p17
F585062.0
sS'from_this_person_to_poi'
p18
F1.0
sS'expenses^2'
p19
F8892301401.0
sS'restricted_stock'
p20
F585062.0
sS'salary'
p21
F365788.0
sS'total_payments'
p22
F1061827.0
sVgwhalleynsf
p23
F0.40505952784100907
sS'exercised_stock_options^2'
p24
Fnan
sS'exercised_stock_options'
p25
Fnan
ssS'BAXTER JOHN C'
p26
(dp27
g3
F11200.0
sg4
F9.323669057283185
sg5
I00
sg6
F-1386055.0
sg7
S''
p28
sg9
Fnan
sg10
F74822092800.0
sg11
F15.714709979322754
sg12
Fnan
sg13
F2660303.0
sg14
F1586055.0
sg15
F0.0
sg16
F1200000.0
sg17
F10623258.0
sg18
Fnan
sg19
F125440000.0
sg20
F3942714.0
sg21
F267102.0
sg22
F5634343.0
sg23
F0.0
sg24
F44629668135936.0
sg25
F6680544.0
ssS'ELLIOTT STEVEN'
p29
(dp30
g3
F78552.0
sg4
F11.271516104849127
sg5
I00
sg6
F-400729.0
sg7
S'steven.elliott@enron.com'
p31
sg9
Fnan
sg10
F384146301888.0
sg11
F15.402773206625037
sg12
Fnan
sg13
F12961.0
sg14
Fnan
sg15
F0.0
sg16
F350000.0
sg17
F6678735.0
sg18
Fnan
sg19
F6170416704.0
sg20
F1788391.0
sg21
F170941.0
sg22
F211725.0
sg23
F0.0
sg24
F23915464438336.0
sg25
F4890344.0
ssS'CORDES WILLIAM R'
p32
(dp33
g3
Fnan
sg4
Fnan
sg5
I00
sg6
Fnan
sg7
S'bill.cordes@enron.com'
p34
sg9
F10.0
sg10
Fnan
sg11
F13.387569753090926
sg12
F58.0
sg13
Fnan
sg14
Fnan
sg15
F0.0
sg16
Fnan
sg17
F1038185.0
sg18
F0.0
sg19
Fnan
sg20
F386335.0
sg21
Fnan
sg22
Fnan
sg23
F0.0
sg24
F424908422500.0
sg25
F651850.0
ssS'HANNON KEVIN P'
p35
(dp36
g3
F34039.0
sg4
F10.435262205052501
sg5
I01
sg6
F-3117011.0
sg7
S'kevin.hannon@enron.com'
p37
sg9
F32.0
sg10
F188508016039.0
sg11
F15.527144163283632
sg12
F1035.0
sg13
F11350.0
sg14
F1617011.0
sg15
F0.0
sg16
F1500000.0
sg17
F6391065.0
sg18
F21.0
sg19
F1158653521.0
sg20
F853064.0
sg21
F243293.0
sg22
F288682.0
sg23
F0.42762849735621267
sg24
F30669455076001.0
sg25
F5538001.0
ssS'MORDAUNT KRISTINA M'
p38
(dp39
g3
F35018.0
sg4
F10.463617493986263
sg5
I00
sg6
Fnan
sg7
S'kristina.mordaunt@enron.com'
p40
sg9
Fnan
sg10
Fnan
sg11
Fnan
sg12
Fnan
sg13
F1411.0
sg14
Fnan
sg15
F0.0
sg16
F325000.0
sg17
F208510.0
sg18
Fnan
sg19
F1226260324.0
sg20
F208510.0
sg21
F267093.0
sg22
F628522.0
sg23
F0.0
sg24
Fnan
sg25
Fnan
ssS'MEYER ROCKFORD G'
p41
(dp42
g3
Fnan
sg4
Fnan
sg5
I00
sg6
Fnan
sg7
S'rockford.meyer@enron.com'
p43
sg9
F0.0
sg10
Fnan
sg11
F13.109255847840283
sg12
F22.0
sg13
Fnan
sg14
Fnan
sg15
F0.0
sg16
Fnan
sg17
F955873.0
sg18
F0.0
sg19
Fnan
sg20
F462384.0
sg21
Fnan
sg22
F1848227.0
sg23
F0.0
sg24
F243531393121.0
sg25
F493489.0
ssS'MCMAHON JEFFREY'
p44
(dp45
g3
F137108.0
sg4
F11.828524215416218
sg5
I00
sg6
Fnan
sg7
S'jeffrey.mcmahon@enron.com'
p46
sg9
F58.0
sg10
F151374635832.0
sg11
F13.914499417666452
sg12
F2228.0
sg13
F297353.0
sg14
F694862.0
sg15
F0.0
sg16
F2600000.0
sg17
F1662855.0
sg18
F26.0
sg19
F18798603664.0
sg20
F558801.0
sg21
F370448.0
sg22
F4099771.0
sg23
F0.4335466076333087
sg24
F1218935234916.0
sg25
F1104054.0
ssS'HAEDICKE MARK E'
p47
(dp48
g3
F76169.0
sg4
F11.240709834752362
sg5
I00
sg6
F-934484.0
sg7
S'mark.haedicke@enron.com'
p49
sg9
F180.0
sg10
F46367878750.0
sg11
F13.319162953378937
sg12
F1847.0
sg13
F52382.0
sg14
F983346.0
sg15
F0.0
sg16
F1150000.0
sg17
F803094.0
sg18
F61.0
sg19
F5801716561.0
sg20
F524169.0
sg21
F374125.0
sg22
F3859065.0
sg23
F0.0
sg24
F370576562500.0
sg25
F608750.0
ssS'PIPER GREGORY F'
p50
(dp51
g3
F43057.0
sg4
F10.670280098263682
sg5
I00
sg6
F-33333.0
sg7
S'greg.piper@enron.com'
p52
sg9
F61.0
sg10
F37902646530.0
sg11
F13.688006677620757
sg12
F742.0
sg13
F778.0
sg14
Fnan
sg15
F0.0
sg16
F400000.0
sg17
F880290.0
sg18
F48.0
sg19
F1853905249.0
sg20
F409554.0
sg21
F197091.0
sg22
F1737629.0
sg23
F0.4618362206160597
sg24
F774910484100.0
sg25
F880290.0
ssS'HUMPHREY GENE E'
p53
(dp54
g3
F4994.0
sg4
F8.515992470839718
sg5
I00
sg6
Fnan
sg7
S'gene.humphrey@enron.com'
p55
sg9
F10.0
sg10
F11400143392.0
sg11
F14.64089929967365
sg12
F119.0
sg13
Fnan
sg14
Fnan
sg15
F0.0
sg16
Fnan
sg17
F2282768.0
sg18
F17.0
sg19
F24940036.0
sg20
Fnan
sg21
F130724.0
sg22
F3100224.0
sg23
F0.3992547699554886
sg24
F5211029741824.0
sg25
F2282768.0
ssS'NOLES JAMES L'
p56
(dp57
g3
Fnan
sg4
Fnan
sg5
I00
sg6
Fnan
sg7
g28
sg9
Fnan
sg10
Fnan
sg11
Fnan
sg12
Fnan
sg13
Fnan
sg14
Fnan
sg15
F0.0
sg16
Fnan
sg17
F368705.0
sg18
Fnan
sg19
Fnan
sg20
F463261.0
sg21
Fnan
sg22
F774401.0
sg23
F0.0
sg24
Fnan
sg25
Fnan
ssS'BLACHMAN JEREMY M'
p58
(dp59
g3
F84208.0
sg4
F11.34104520759356
sg5
I00
sg6
Fnan
sg7
S'jeremy.blachman@enron.com'
p60
sg9
F25.0
sg10
F64445477104.0
sg11
F13.548040179456299
sg12
F2326.0
sg13
F272.0
sg14
F831809.0
sg15
F0.31125870238872344
sg16
F850000.0
sg17
F954354.0
sg18
F2.0
sg19
F7090987264.0
sg20
F189041.0
sg21
F248546.0
sg22
F2014835.0
sg23
F0.3412389952618279
sg24
F585703987969.0
sg25
F765313.0
ssS'SUNDE MARTIN'
p61
(dp62
g3
Fnan
sg4
Fnan
sg5
I00
sg6
Fnan
sg7
S'marty.sunde@enron.com'
p63
sg9
F37.0
sg10
Fnan
sg11
Fnan
sg12
F2565.0
sg13
F111122.0
sg14
F476451.0
sg15
F0.34319837360400834
sg16
F700000.0
sg17
F698920.0
sg18
F13.0
sg19
Fnan
sg20
F698920.0
sg21
F257486.0
sg22
F1545059.0
sg23
F0.33832209360492255
sg24
Fnan
sg25
Fnan
ssS'GIBBS DANA R'
p64
(dp65
g3
Fnan
sg4
Fnan
sg5
I00
sg6
Fnan
sg7
S'dana.gibbs@enron.com'
p66
sg9
F0.0
sg10
Fnan
sg11
F14.612240424779461
sg12
F23.0
sg13
Fnan
sg14
F461912.0
sg15
F0.0
sg16
Fnan
sg17
F2218275.0
sg18
F0.0
sg19
Fnan
sg20
Fnan
sg21
Fnan
sg22
F966522.0
sg23
F0.0
sg24
F4920743975625.0
sg25
F2218275.0
ssS'LOWRY CHARLES P'
p67
(dp68
g3
Fnan
sg4
Fnan
sg5
I00
sg6
Fnan
sg7
g28
sg9
Fnan
sg10
Fnan
sg11
F12.827200056737887
sg12
Fnan
sg13
Fnan
sg14
Fnan
sg15
F0.0
sg16
Fnan
sg17
F372205.0
sg18
Fnan
sg19
Fnan
sg20
F153686.0
sg21
Fnan
sg22
Fnan
sg23
F0.0
sg24
F138536562025.0
sg25
F372205.0
ssS'COLWELL WESLEY'
p69
(dp70
g3
F16514.0
sg4
F9.711963784977375
sg5
I01
sg6
F-144062.0
sg7
S'wes.colwell@enron.com'
p71
sg9
F240.0
sg10
Fnan
sg11
Fnan
sg12
F1132.0
sg13
F101740.0
sg14
Fnan
sg15
F0.27690601376036367
sg16
F1200000.0
sg17
F698242.0
sg18
F11.0
sg19
F272712196.0
sg20
F698242.0
sg21
F288542.0
sg22
F1490344.0
sg23
F0.3955692389485217
sg24
Fnan
sg25
Fnan
ssS'MULLER MARK S'
p72
(dp73
g3
Fnan
sg4
Fnan
sg5
I00
sg6
F-719000.0
sg7
S's..muller@enron.com'
p74
sg9
F12.0
sg10
Fnan
sg11
F13.870301727646964
sg12
F114.0
sg13
F947.0
sg14
F1725545.0
sg15
F0.0
sg16
F1100000.0
sg17
F1416848.0
sg18
F0.0
sg19
Fnan
sg20
F360528.0
sg21
F251654.0
sg22
F3202070.0
sg23
F0.0
sg24
F1115811942400.0
sg25
F1056320.0
ssS'JACKSON CHARLENE R'
p75
(dp76
g3
F10181.0
sg4
F9.228278517107196
sg5
I00
sg6
Fnan
sg7
S'charlene.jackson@enron.com'
p77
sg9
F25.0
sg10
F1884126403.0
sg11
F12.128451586630232
sg12
F117.0
sg13
F2435.0
sg14
Fnan
sg15
F0.0
sg16
F250000.0
sg17
F725735.0
sg18
F19.0
sg19
F103652761.0
sg20
F540672.0
sg21
F288558.0
sg22
F551174.0
sg23
F0.3106340875223354
sg24
F34248313969.0
sg25
F185063.0
ssS'WESTFAHL RICHARD K'
p78
(dp79
g3
F51870.0
sg4
F10.856495867345446
sg5
I00
sg6
F-10800.0
sg7
S'dick.westfahl@enron.com'
p80
sg9
Fnan
sg10
Fnan
sg11
Fnan
sg12
Fnan
sg13
F401130.0
sg14
F256191.0
sg15
F0.0
sg16
Fnan
sg17
F384930.0
sg18
Fnan
sg19
F2690496900.0
sg20
F384930.0
sg21
F63744.0
sg22
F762135.0
sg23
F0.0
sg24
Fnan
sg25
Fnan
ssS'WALTERS GARETH W'
p81
(dp82
g3
F33785.0
sg4
F10.427772195986275
sg5
I00
sg6
Fnan
sg7
g28
sg9
Fnan
sg10
F34809665265.0
sg11
F13.845388726678646
sg12
Fnan
sg13
Fnan
sg14
Fnan
sg15
F0.0
sg16
Fnan
sg17
F1030329.0
sg18
Fnan
sg19
F1141426225.0
sg20
Fnan
sg21
Fnan
sg22
F87410.0
sg23
F0.0
sg24
F1061577848241.0
sg25
F1030329.0
ssS'WALLS JR ROBERT H'
p83
(dp84
g3
F50936.0
sg4
F10.838325221696861
sg5
I00
sg6
Fnan
sg7
S'rob.walls@enron.com'
p85
sg9
F17.0
sg10
F221395565184.0
sg11
F15.28489160453756
sg12
F215.0
sg13
F2.0
sg14
F540751.0
sg15
F0.0
sg16
F850000.0
sg17
F5898997.0
sg18
F0.0
sg19
F2594476096.0
sg20
F1552453.0
sg21
F357091.0
sg22
F1798780.0
sg23
F0.4029009248377369
sg24
F18892444743936.0
sg25
F4346544.0
ssS'KITCHEN LOUISE'
p86
(dp87
g3
F5774.0
sg4
F8.661120360222881
sg5
I00
sg6
Fnan
sg7
S'louise.kitchen@enron.com'
p88
sg9
F251.0
sg10
F467936508.0
sg11
F11.302722817788819
sg12
F3669.0
sg13
F93925.0
sg14
Fnan
sg15
F0.15785061242584567
sg16
F3100000.0
sg17
F547143.0
sg18
F194.0
sg19
F33339076.0
sg20
F466101.0
sg21
F271442.0
sg22
F3471141.0
sg23
F0.40073803215383086
sg24
F6567805764.0
sg25
F81042.0
ssS'CHAN RONNIE'
p89
(dp90
g3
Fnan
sg4
Fnan
sg5
I00
sg6
F-98784.0
sg7
g28
sg9
Fnan
sg10
Fnan
sg11
Fnan
sg12
Fnan
sg13
Fnan
sg14
Fnan
sg15
F0.0
sg16
Fnan
sg17
Fnan
sg18
Fnan
sg19
Fnan
sg20
F32460.0
sg21
Fnan
sg22
Fnan
sg23
F0.0
sg24
Fnan
sg25
Fnan
ssS'BELFER ROBERT'
p91
(dp92
g3
Fnan
sg4
Fnan
sg5
I00
sg6
Fnan
sg7
g28
sg9
Fnan
sg10
Fnan
sg11
F8.09712193091871
sg12
Fnan
sg13
Fnan
sg14
Fnan
sg15
F0.0
sg16
Fnan
sg17
F-44093.0
sg18
Fnan
sg19
Fnan
sg20
Fnan
sg21
Fnan
sg22
F102500.0
sg23
F0.0
sg24
F10791225.0
sg25
F3285.0
ssS'SHANKMAN JEFFREY A'
p93
(dp94
g3
F178979.0
sg4
F12.095023759504793
sg5
I00
sg6
Fnan
sg7
S'jeffrey.shankman@enron.com'
p95
sg9
F94.0
sg10
F258069462142.0
sg11
F14.181470859235034
sg12
F1730.0
sg13
F1191.0
sg14
F554422.0
sg15
F0.0
sg16
F2000000.0
sg17
F2072035.0
sg18
F83.0
sg19
F32033482441.0
sg20
F630137.0
sg21
F304110.0
sg22
F3038702.0
sg23
F0.4366087390583769
sg24
F2079069842404.0
sg25
F1441898.0
ssS'BERGSIEKER RICHARD P'
p96
(dp97
g3
F59175.0
sg4
F10.988254434382185
sg5
I00
sg6
F-485813.0
sg7
S'rick.bergsieker@enron.com'
p98
sg9
F4.0
sg10
Fnan
sg11
Fnan
sg12
F233.0
sg13
F427316.0
sg14
F180250.0
sg15
F0.0
sg16
F250000.0
sg17
F659249.0
sg18
F0.0
sg19
F3501680625.0
sg20
F659249.0
sg21
F187922.0
sg22
F618850.0
sg23
F0.0
sg24
Fnan
sg25
Fnan
ssS'URQUHART JOHN A'
p99
(dp100
g3
F228656.0
sg4
F12.339973969721576
sg5
I00
sg6
F-36666.0
sg7
g28
sg9
Fnan
sg10
Fnan
sg11
Fnan
sg12
Fnan
sg13
Fnan
sg14
Fnan
sg15
F0.0
sg16
Fnan
sg17
Fnan
sg18
Fnan
sg19
F52283566336.0
sg20
Fnan
sg21
Fnan
sg22
F228656.0
sg23
F0.0
sg24
Fnan
sg25
Fnan
ssS'BIBI PHILIPPE A'
p101
(dp102
g3
F38559.0
sg4
F10.559944814778241
sg5
I00
sg6
Fnan
sg7
S'philippe.bibi@enron.com'
p103
sg9
F23.0
sg10
F56517237306.0
sg11
F14.197866698853527
sg12
F1336.0
sg13
F425688.0
sg14
F369721.0
sg15
F0.0
sg16
F1000000.0
sg17
F1843816.0
sg18
F8.0
sg19
F1486796481.0
sg20
F378082.0
sg21
F213625.0
sg22
F2047593.0
sg23
F0.0
sg24
F2148376158756.0
sg25
F1465734.0
ssS'RIEKER PAULA H'
p104
(dp105
g3
F33271.0
sg4
F10.412441425669323
sg5
I01
sg6
F-100000.0
sg7
S'paula.rieker@enron.com'
p106
sg9
F35.0
sg10
F54406003498.0
sg11
F14.30729891746906
sg12
F1258.0
sg13
F1950.0
sg14
Fnan
sg15
F0.0
sg16
F700000.0
sg17
F1918887.0
sg18
F48.0
sg19
F1106959441.0
sg20
F283649.0
sg21
F249201.0
sg22
F1099100.0
sg23
F0.0
sg24
F2674003316644.0
sg25
F1635238.0
ssS'BECK SALLY W'
p107
(dp108
g3
F37172.0
sg4
F10.52331106867723
sg5
I00
sg6
Fnan
sg7
S'sally.beck@enron.com'
p109
sg9
F144.0
sg10
Fnan
sg11
Fnan
sg12
F2639.0
sg13
F566.0
sg14
Fnan
sg15
F0.0
sg16
F700000.0
sg17
F126027.0
sg18
F386.0
sg19
F1381757584.0
sg20
F126027.0
sg21
F231330.0
sg22
F969068.0
sg23
F0.0
sg24
Fnan
sg25
Fnan
ssS'HAUG DAVID L'
p110
(dp111
g3
F475.0
sg4
F6.163314804034641
sg5
I00
sg6
Fnan
sg7
S'david.haug@enron.com'
p112
sg9
F4.0
sg10
Fnan
sg11
Fnan
sg12
F471.0
sg13
Fnan
sg14
Fnan
sg15
F0.0
sg16
Fnan
sg17
F2217299.0
sg18
F7.0
sg19
F225625.0
sg20
F2217299.0
sg21
Fnan
sg22
F475.0
sg23
F0.0
sg24
Fnan
sg25
Fnan
ssS'ECHOLS JOHN B'
p113
(dp114
g3
F21530.0
sg4
F9.97720259035841
sg5
I00
sg6
Fnan
sg7
S'john.echols@enron.com'
p115
sg9
Fnan
sg10
F12948960140.0
sg11
F13.307078733439988
sg12
Fnan
sg13
F53775.0
sg14
F2234774.0
sg15
F0.0
sg16
F200000.0
sg17
F1008941.0
sg18
Fnan
sg19
F463540900.0
sg20
F407503.0
sg21
F182245.0
sg22
F2692324.0
sg23
F0.0
sg24
F361727667844.0
sg25
F601438.0
ssS'MENDELSOHN JOHN'
p116
(dp117
g3
F148.0
sg4
F4.997212273764115
sg5
I00
sg6
F-103750.0
sg7
g28
sg9
Fnan
sg10
Fnan
sg11
Fnan
sg12
Fnan
sg13
Fnan
sg14
Fnan
sg15
F0.0
sg16
Fnan
sg17
Fnan
sg18
Fnan
sg19
F21904.0
sg20
Fnan
sg21
Fnan
sg22
F148.0
sg23
F0.0
sg24
Fnan
sg25
Fnan
ssS'HICKERSON GARY J'
p118
(dp119
g3
F98849.0
sg4
F11.501348712209706
sg5
I00
sg6
Fnan
sg7
S'gary.hickerson@enron.com'
p120
sg9
F40.0
sg10
Fnan
sg11
Fnan
sg12
F900.0
sg13
F1936.0
sg14
F69223.0
sg15
F0.0
sg16
F1700000.0
sg17
F441096.0
sg18
F1.0
sg19
F9771124801.0
sg20
F441096.0
sg21
F211788.0
sg22
F2081796.0
sg23
F0.0
sg24
Fnan
sg25
Fnan
ssS'LEWIS RICHARD'
p121
(dp122
g3
Fnan
sg4
Fnan
sg5
I00
sg6
Fnan
sg7
S'richard.lewis@enron.com'
p123
sg9
F10.0
sg10
Fnan
sg11
F13.653552647536456
sg12
F739.0
sg13
Fnan
sg14
Fnan
sg15
F0.0
sg16
Fnan
sg17
F850477.0
sg18
F0.0
sg19
Fnan
sg20
Fnan
sg21
Fnan
sg22
Fnan
sg23
F0.0
sg24
F723311127529.0
sg25
F850477.0
ssS'HAYES ROBERT E'
p124
(dp125
g3
Fnan
sg4
Fnan
sg5
I00
sg6
Fnan
sg7
S'robert.hayes@enron.com'
p126
sg9
F16.0
sg10
Fnan
sg11
Fnan
sg12
F50.0
sg13
Fnan
sg14
Fnan
sg15
F0.0
sg16
Fnan
sg17
F151418.0
sg18
F0.0
sg19
Fnan
sg20
F151418.0
sg21
Fnan
sg22
F7961.0
sg23
F0.0
sg24
Fnan
sg25
Fnan
ssS'KOPPER MICHAEL J'
p127
(dp128
g3
F118134.0
sg4
F11.679574852369887
sg5
I01
sg6
Fnan
sg7
S'michael.kopper@enron.com'
p129
sg9
Fnan
sg10
Fnan
sg11
Fnan
sg12
Fnan
sg13
F907502.0
sg14
F602671.0
sg15
F0.0
sg16
F800000.0
sg17
F985032.0
sg18
Fnan
sg19
F13955641956.0
sg20
F985032.0
sg21
F224305.0
sg22
F2652612.0
sg23
F0.0
sg24
Fnan
sg25
Fnan
ssS'LEFF DANIEL P'
p130
(dp131
g3
Fnan
sg4
Fnan
sg5
I00
sg6
Fnan
sg7
S'dan.leff@enron.com'
p132
sg9
F67.0
sg10
Fnan
sg11
Fnan
sg12
F2672.0
sg13
F3083.0
sg14
F1387399.0
sg15
F0.0
sg16
F1000000.0
sg17
F360528.0
sg18
F14.0
sg19
Fnan
sg20
F360528.0
sg21
F273746.0
sg22
F2664228.0
sg23
F0.0
sg24
Fnan
sg25
Fnan
ssS'BERBERIAN DAVID'
p133
(dp134
g3
F11892.0
sg4
F9.383621184117988
sg5
I00
sg6
Fnan
sg7
S'david.berberian@enron.com'
p135
sg9
Fnan
sg10
F19317317232.0
sg11
F14.300646612343575
sg12
Fnan
sg13
Fnan
sg14
Fnan
sg15
F0.0
sg16
Fnan
sg17
F2493616.0
sg18
Fnan
sg19
F141419664.0
sg20
F869220.0
sg21
F216582.0
sg22
F228474.0
sg23
F0.0
sg24
F2638662364816.0
sg25
F1624396.0
ssS'DETMERING TIMOTHY J'
p136
(dp137
g3
F52255.0
sg4
F10.863890859028604
sg5
I00
sg6
F-775241.0
sg7
S'timothy.detmering@enron.com'
p138
sg9
Fnan
sg10
F105966085575.0
sg11
F14.522494073430122
sg12
Fnan
sg13
F1105.0
sg14
F415657.0
sg15
F0.0
sg16
F425000.0
sg17
F2027865.0
sg18
Fnan
sg19
F2730585025.0
sg20
F315068.0
sg21
F210500.0
sg22
F1204583.0
sg23
F0.0
sg24
F4112236458225.0
sg25
F2027865.0
ssS'POWERS WILLIAM'
p139
(dp140
g3
Fnan
sg4
Fnan
sg5
I00
sg6
F-17500.0
sg7
S'ken.powers@enron.com'
p141
sg9
F0.0
sg10
Fnan
sg11
Fnan
sg12
F12.0
sg13
Fnan
sg14
Fnan
sg15
F0.0
sg16
Fnan
sg17
Fnan
sg18
F0.0
sg19
Fnan
sg20
Fnan
sg21
Fnan
sg22
Fnan
sg23
F0.0
sg24
Fnan
sg25
Fnan
ssS'GOLD JOSEPH'
p142
(dp143
g3
Fnan
sg4
Fnan
sg5
I00
sg6
Fnan
sg7
S'joe.gold@enron.com'
p144
sg9
Fnan
sg10
Fnan
sg11
F12.986578017932525
sg12
Fnan
sg13
F819288.0
sg14
F304805.0
sg15
F0.0
sg16
F750000.0
sg17
F877611.0
sg18
Fnan
sg19
Fnan
sg20
F441096.0
sg21
F272880.0
sg22
F2146973.0
sg23
F0.0
sg24
F190545345225.0
sg25
F436515.0
ssS'BANNANTINE JAMES M'
p145
(dp146
g3
F56301.0
sg4
F10.938467575959383
sg5
I00
sg6
F-5104.0
sg7
S'james.bannantine@enron.com'
p147
sg9
F39.0
sg10
F227802685257.0
sg11
F15.213278099713778
sg12
F465.0
sg13
F864523.0
sg14
Fnan
sg15
F0.0
sg16
Fnan
sg17
F5243487.0
sg18
F0.0
sg19
F3169802601.0
sg20
F1757552.0
sg21
F477.0
sg22
F916197.0
sg23
F0.0
sg24
F16371386468649.0
sg25
F4046157.0
ssS'DUNCAN JOHN H'
p148
(dp149
g3
Fnan
sg4
Fnan
sg5
I00
sg6
F-25000.0
sg7
g28
sg9
Fnan
sg10
Fnan
sg11
F12.825976864322401
sg12
Fnan
sg13
Fnan
sg14
Fnan
sg15
F0.0
sg16
Fnan
sg17
F371750.0
sg18
Fnan
sg19
Fnan
sg20
Fnan
sg21
Fnan
sg22
F77492.0
sg23
F0.0
sg24
F138198062500.0
sg25
F371750.0
ssS'SHERRIFF JOHN R'
p150
(dp151
g3
Fnan
sg4
Fnan
sg5
I00
sg6
Fnan
sg7
S'john.sherriff@enron.com'
p152
sg9
F28.0
sg10
Fnan
sg11
F14.422859080439128
sg12
F2103.0
sg13
F1852186.0
sg14
F554422.0
sg15
F0.0
sg16
F1500000.0
sg17
F3128982.0
sg18
F23.0
sg19
Fnan
sg20
F1293424.0
sg21
F428780.0
sg22
F4335388.0
sg23
F0.0
sg24
F3369273171364.0
sg25
F1835558.0
ssS'SHELBY REX'
p153
(dp154
g3
F22884.0
sg4
F10.03819325538842
sg5
I01
sg6
F-4167.0
sg7
S'rex.shelby@enron.com'
p155
sg9
F13.0
sg10
F37172678064.0
sg11
F14.300646612343575
sg12
F91.0
sg13
F1573324.0
sg14
Fnan
sg15
F0.0
sg16
F200000.0
sg17
F2493616.0
sg18
F14.0
sg19
F523677456.0
sg20
F869220.0
sg21
F211844.0
sg22
F2003885.0
sg23
F0.0
sg24
F2638662364816.0
sg25
F1624396.0
ssS'LEMAISTRE CHARLES'
p156
(dp157
g3
Fnan
sg4
Fnan
sg5
I00
sg6
F-25000.0
sg7
g28
sg9
Fnan
sg10
Fnan
sg11
F12.9309074287884
sg12
Fnan
sg13
Fnan
sg14
Fnan
sg15
F0.0
sg16
Fnan
sg17
F412878.0
sg18
Fnan
sg19
Fnan
sg20
Fnan
sg21
Fnan
sg22
F87492.0
sg23
F0.0
sg24
F170468242884.0
sg25
F412878.0
ssS'PEREIRA PAULO V. FERRAZ'
p158
(dp159
g3
F27942.0
sg4
F10.237886212210432
sg5
I00
sg6
F-101250.0
sg7
g28
sg9
Fnan
sg10
Fnan
sg11
Fnan
sg12
Fnan
sg13
Fnan
sg14
Fnan
sg15
F0.0
sg16
Fnan
sg17
Fnan
sg18
Fnan
sg19
F780755364.0
sg20
Fnan
sg21
Fnan
sg22
F27942.0
sg23
F0.0
sg24
Fnan
sg25
Fnan
ssS'KISHKILL JOSEPH G'
p160
(dp161
g3
F116335.0
sg4
F11.664229239061394
sg5
I00
sg6
F-51042.0
sg7
S'joe.kishkill@enron.com'
p162
sg9
Fnan
sg10
Fnan
sg11
Fnan
sg12
Fnan
sg13
F465357.0
sg14
Fnan
sg15
F0.0
sg16
Fnan
sg17
F1034346.0
sg18
Fnan
sg19
F13533832225.0
sg20
F1034346.0
sg21
F174246.0
sg22
F704896.0
sg23
F0.0
sg24
Fnan
sg25
Fnan
ssS'WHALLEY LAWRENCE G'
p163
(dp164
g3
F57838.0
sg4
F10.965401278088198
sg5
I00
sg6
Fnan
sg7
S'greg.whalley@enron.com'
p165
sg9
F186.0
sg10
F189879840480.0
sg11
F15.004256012431435
sg12
F3920.0
sg13
F301026.0
sg14
F808346.0
sg15
F0.0
sg16
F3000000.0
sg17
F6079137.0
sg18
F24.0
sg19
F3345234244.0
sg20
F2796177.0
sg21
F510364.0
sg22
F4677574.0
sg23
F0.0
sg24
F10777826361600.0
sg25
F3282960.0
ssS'PIRO JIM'
p166
(dp167
g3
Fnan
sg4
Fnan
sg5
I00
sg6
Fnan
sg7
S'jim.piro@enron.com'
p168
sg9
F0.0
sg10
Fnan
sg11
Fnan
sg12
F3.0
sg13
Fnan
sg14
Fnan
sg15
F0.0
sg16
Fnan
sg17
F47304.0
sg18
F1.0
sg19
Fnan
sg20
F47304.0
sg21
Fnan
sg22
Fnan
sg23
F0.0
sg24
Fnan
sg25
Fnan
ssS'MCCONNELL MICHAEL S'
p169
(dp170
g3
F81364.0
sg4
F11.306688193722378
sg5
I00
sg6
Fnan
sg7
S'mike.mcconnell@enron.com'
p171
sg9
F92.0
sg10
F132054585640.0
sg11
F14.299793007907198
sg12
F2189.0
sg13
F540.0
sg14
F554422.0
sg15
F0.0
sg16
F1100000.0
sg17
F3101279.0
sg18
F194.0
sg19
F6620100496.0
sg20
F1478269.0
sg21
F365038.0
sg22
F2101364.0
sg23
F0.0
sg24
F2634161460100.0
sg25
F1623010.0
ssS'DELAINEY DAVID W'
p172
(dp173
g3
F86174.0
sg4
F11.364123787024146
sg5
I01
sg6
Fnan
sg7
S'david.delainey@enron.com'
p174
sg9
F66.0
sg10
F197434371662.0
sg11
F14.644548283658818
sg12
F2097.0
sg13
F1661.0
sg14
F1294981.0
sg15
F0.0
sg16
F3000000.0
sg17
F3614261.0
sg18
F609.0
sg19
F7425958276.0
sg20
F1323148.0
sg21
F365163.0
sg22
F4747979.0
sg23
F0.0
sg24
F5249198778769.0
sg25
F2291113.0
ssS'SULLIVAN-SHAKLOVITZ COLLEEN'
p175
(dp176
g3
Fnan
sg4
Fnan
sg5
I00
sg6
Fnan
sg7
g28
sg9
Fnan
sg10
Fnan
sg11
F14.124740058191612
sg12
Fnan
sg13
F162.0
sg14
F554422.0
sg15
F0.0
sg16
F100000.0
sg17
F1362375.0
sg18
Fnan
sg19
Fnan
sg20
Fnan
sg21
F162779.0
sg22
F999356.0
sg23
F0.0
sg24
F1856065640625.0
sg25
F1362375.0
ssS'LINDHOLM TOD A'
p177
(dp178
g3
F57727.0
sg4
F10.96348028065585
sg5
I00
sg6
Fnan
sg7
S'tod.lindholm@enron.com'
p179
sg9
Fnan
sg10
F147166962447.0
sg11
F14.751353297496836
sg12
Fnan
sg13
F2630.0
sg14
F175000.0
sg15
F0.0
sg16
F200000.0
sg17
F3064208.0
sg18
Fnan
sg19
F3332406529.0
sg20
F514847.0
sg21
F236457.0
sg22
F875889.0
sg23
F0.0
sg24
F6499241508321.0
sg25
F2549361.0
ssS'MEYER JEROME J'
p180
(dp181
g3
F2151.0
sg4
F7.67368812926773
sg5
I00
sg6
F-38346.0
sg7
g28
sg9
Fnan
sg10
Fnan
sg11
Fnan
sg12
Fnan
sg13
Fnan
sg14
Fnan
sg15
F0.0
sg16
Fnan
sg17
Fnan
sg18
Fnan
sg19
F4626801.0
sg20
Fnan
sg21
Fnan
sg22
F2151.0
sg23
F0.0
sg24
Fnan
sg25
Fnan
ssS'LAY KENNETH L'
p182
(dp183
g3
F99832.0
sg4
F11.51124405218769
sg5
I01
sg6
F-300000.0
sg7
S'kenneth.lay@enron.com'
p184
sg9
F123.0
sg10
F3429067871488.0
sg11
F17.35206553040225
sg12
F2411.0
sg13
F10359729.0
sg14
F3600000.0
sg15
F0.0
sg16
F7000000.0
sg17
F49110078.0
sg18
F16.0
sg19
F9966428224.0
sg20
F14761694.0
sg21
F1072321.0
sg22
F103559793.0
sg23
F0.0
sg24
F1179811483411456.0
sg25
F34348384.0
ssS'BUTTS ROBERT H'
p185
(dp186
g3
F9410.0
sg4
F9.149528232579426
sg5
I00
sg6
F-75000.0
sg7
S'bob.butts@enron.com'
p187
sg9
Fnan
sg10
Fnan
sg11
Fnan
sg12
Fnan
sg13
F150656.0
sg14
F175000.0
sg15
F0.0
sg16
F750000.0
sg17
F417619.0
sg18
Fnan
sg19
F88548100.0
sg20
F417619.0
sg21
F261516.0
sg22
F1271582.0
sg23
F0.0
sg24
Fnan
sg25
Fnan
ssS'OLSON CINDY K'
p188
(dp189
g3
F63791.0
sg4
F11.06336739355144
sg5
I00
sg6
Fnan
sg7
S'cindy.olson@enron.com'
p190
sg9
F20.0
sg10
F104428035894.0
sg11
F14.308396625838256
sg12
F856.0
sg13
F972.0
sg14
F100000.0
sg15
F0.0
sg16
F750000.0
sg17
F2606763.0
sg18
F15.0
sg19
F4069291681.0
sg20
F969729.0
sg21
F329078.0
sg22
F1321557.0
sg23
F0.0
sg24
F2679880317156.0
sg25
F1637034.0
ssS'MCDONALD REBECCA'
p191
(dp192
g3
Fnan
sg4
Fnan
sg5
I00
sg6
Fnan
sg7
S'rebecca.mcdonald@enron.com'
p193
sg9
F54.0
sg10
Fnan
sg11
F13.537516075581697
sg12
F720.0
sg13
Fnan
sg14
Fnan
sg15
F0.0
sg16
Fnan
sg17
F1691366.0
sg18
F1.0
sg19
Fnan
sg20
F934065.0
sg21
Fnan
sg22
Fnan
sg23
F0.0
sg24
F573504804601.0
sg25
F757301.0
ssS'CUMBERLAND MICHAEL S'
p194
(dp195
g3
F22344.0
sg4
F10.014313107625012
sg5
I00
sg6
Fnan
sg7
g28
sg9
Fnan
sg10
Fnan
sg11
Fnan
sg12
Fnan
sg13
F713.0
sg14
F275000.0
sg15
F0.0
sg16
F325000.0
sg17
F207940.0
sg18
Fnan
sg19
F499254336.0
sg20
F207940.0
sg21
F184899.0
sg22
F807956.0
sg23
F0.0
sg24
Fnan
sg25
Fnan
ssS'GAHN ROBERT S'
p196
(dp197
g3
F50080.0
sg4
F10.82137700577398
sg5
I00
sg6
F-1042.0
sg7
g28
sg9
Fnan
sg10
F4168508960.0
sg11
F11.329447239492891
sg12
Fnan
sg13
F76547.0
sg14
Fnan
sg15
F0.0
sg16
F509870.0
sg17
F318607.0
sg18
Fnan
sg19
F2508006400.0
sg20
F235370.0
sg21
F192008.0
sg22
F900585.0
sg23
F0.0
sg24
F6928398169.0
sg25
F83237.0
ssS'BADUM JAMES P'
p198
(dp199
g3
F3486.0
sg4
F8.156510226079966
sg5
I00
sg6
Fnan
sg7
g28
sg9
Fnan
sg10
F898750062.0
sg11
F12.460005309904263
sg12
Fnan
sg13
Fnan
sg14
Fnan
sg15
F0.0
sg16
Fnan
sg17
F257817.0
sg18
Fnan
sg19
F12152196.0
sg20
Fnan
sg21
Fnan
sg22
F182466.0
sg23
F0.0
sg24
F66469605489.0
sg25
F257817.0
ssS'HERMANN ROBERT J'
p200
(dp201
g3
F48357.0
sg4
F10.786366268065041
sg5
I00
sg6
F-280000.0
sg7
S'robert.hermann@enron.com'
p202
sg9
Fnan
sg10
F9066937500.0
sg11
F12.141534124392603
sg12
Fnan
sg13
F416441.0
sg14
F150000.0
sg15
F0.0
sg16
F700000.0
sg17
F668132.0
sg18
Fnan
sg19
F2338399449.0
sg20
F480632.0
sg21
F262663.0
sg22
F1297461.0
sg23
F0.0
sg24
F35156250000.0
sg25
F187500.0
ssS'GATHMANN WILLIAM D'
p203
(dp204
g3
Fnan
sg4
Fnan
sg5
I00
sg6
Fnan
sg7
g28
sg9
Fnan
sg10
Fnan
sg11
F14.377276033664389
sg12
Fnan
sg13
Fnan
sg14
Fnan
sg15
F0.0
sg16
Fnan
sg17
F1945360.0
sg18
Fnan
sg19
Fnan
sg20
F264013.0
sg21
Fnan
sg22
Fnan
sg23
F0.0
sg24
F3075695182756.0
sg25
F1753766.0
ssS'HORTON STANLEY C'
p205
(dp206
g3
Fnan
sg4
Fnan
sg5
I00
sg6
Fnan
sg7
S'stanley.horton@enron.com'
p207
sg9
F44.0
sg10
Fnan
sg11
F15.466199620818061
sg12
F1074.0
sg13
Fnan
sg14
Fnan
sg15
F0.0
sg16
Fnan
sg17
F7256648.0
sg18
F15.0
sg19
Fnan
sg20
F2046079.0
sg21
Fnan
sg22
F3131860.0
sg23
F0.3881398674212014
sg24
F27150029303761.0
sg25
F5210569.0
ssS'BOWEN JR RAYMOND M'
p208
(dp209
g3
F65907.0
sg4
F11.09599993639729
sg5
I01
sg6
F-833.0
sg7
S'raymond.bowen@enron.com'
p210
sg9
F140.0
sg10
Fnan
sg11
Fnan
sg12
F1593.0
sg13
F1621.0
sg14
F974293.0
sg15
F0.0
sg16
F1350000.0
sg17
F252055.0
sg18
F15.0
sg19
F4343732649.0
sg20
F252055.0
sg21
F278601.0
sg22
F2669589.0
sg23
F0.0
sg24
Fnan
sg25
Fnan
ssS'FASTOW ANDREW S'
p211
(dp212
g3
F55921.0
sg4
F10.931695259437355
sg5
I01
sg6
F-1386055.0
sg7
S'andrew.fastow@enron.com'
p213
sg9
Fnan
sg10
Fnan
sg11
Fnan
sg12
Fnan
sg13
F277464.0
sg14
F1736055.0
sg15
F0.0
sg16
F1300000.0
sg17
F1794412.0
sg18
Fnan
sg19
F3127158241.0
sg20
F1794412.0
sg21
F440698.0
sg22
F2424083.0
sg23
F0.0
sg24
Fnan
sg25
Fnan
ssS'FITZGERALD JAY L'
p214
(dp215
g3
F23870.0
sg4
F10.080377719332876
sg5
I00
sg6
Fnan
sg7
S'jay.fitzgerald@enron.com'
p216
sg9
F1.0
sg10
F15860684070.0
sg11
F13.406731464668146
sg12
F723.0
sg13
F285414.0
sg14
F556416.0
sg15
F0.0
sg16
F350000.0
sg17
F1621236.0
sg18
F8.0
sg19
F569776900.0
sg20
F956775.0
sg21
F199157.0
sg22
F1414857.0
sg23
F0.0
sg24
F441508420521.0
sg25
F664461.0
ssS'MORAN MICHAEL P'
p217
(dp218
g3
Fnan
sg4
Fnan
sg5
I00
sg6
Fnan
sg7
S'michael.moran@enron.com'
p219
sg9
F0.0
sg10
Fnan
sg11
F10.99438683899708
sg12
F127.0
sg13
Fnan
sg14
Fnan
sg15
F0.0
sg16
Fnan
sg17
F221141.0
sg18
F0.0
sg19
Fnan
sg20
F161602.0
sg21
Fnan
sg22
Fnan
sg23
F0.0
sg24
F3544892521.0
sg25
F59539.0
ssS'REDMOND BRIAN L'
p220
(dp221
g3
F14689.0
sg4
F9.594854193331415
sg5
I00
sg6
Fnan
sg7
S'brian.redmond@enron.com'
p222
sg9
F204.0
sg10
F110300273871.0
sg11
F15.831618052836012
sg12
F1063.0
sg13
Fnan
sg14
Fnan
sg15
F0.0
sg16
Fnan
sg17
F7890324.0
sg18
F49.0
sg19
F215766721.0
sg20
F381285.0
sg21
F96840.0
sg22
F111529.0
sg23
F0.0
sg24
F56385666703521.0
sg25
F7509039.0
ssS'BAZELIDES PHILIP J'
p223
(dp224
g3
Fnan
sg4
Fnan
sg5
I00
sg6
Fnan
sg7
g28
sg9
Fnan
sg10
Fnan
sg11
F14.285289787034174
sg12
Fnan
sg13
F874.0
sg14
F93750.0
sg15
F0.0
sg16
Fnan
sg17
F1599641.0
sg18
Fnan
sg19
Fnan
sg20
Fnan
sg21
F80818.0
sg22
F860136.0
sg23
F0.0
sg24
F2558851328881.0
sg25
F1599641.0
ssS'DIMICHELE RICHARD G'
p225
(dp226
g3
F35812.0
sg4
F10.486038311754047
sg5
I00
sg6
Fnan
sg7
S'richard.dimichele@enron.com'
p227
sg9
Fnan
sg10
F293363130060.0
sg11
F15.918638718587633
sg12
Fnan
sg13
F374689.0
sg14
F694862.0
sg15
F0.0
sg16
F1000000.0
sg17
F8317782.0
sg18
Fnan
sg19
F1282499344.0
sg20
F126027.0
sg21
F262788.0
sg22
F2368151.0
sg23
F0.0
sg24
F67104849980025.0
sg25
F8191755.0
ssS'DURAN WILLIAM D'
p228
(dp229
g3
F25785.0
sg4
F10.157548206485059
sg5
I00
sg6
Fnan
sg7
S'w.duran@enron.com'
p230
sg9
F106.0
sg10
F37436442165.0
sg11
F14.1883622499111
sg12
F599.0
sg13
F1568.0
sg14
F1105218.0
sg15
F0.0
sg16
F750000.0
sg17
F1640910.0
sg18
F3.0
sg19
F664866225.0
sg20
F189041.0
sg21
F210692.0
sg22
F2093263.0
sg23
F0.0
sg24
F2107923593161.0
sg25
F1451869.0
ssS'THORN TERENCE H'
p231
(dp232
g3
F46145.0
sg4
F10.739543891699677
sg5
I00
sg6
Fnan
sg7
S'terence.thorn@enron.com'
p233
sg9
F0.0
sg10
F205459505020.0
sg11
F15.30897090390122
sg12
F73.0
sg13
F426629.0
sg14
F200000.0
sg15
F0.0
sg16
Fnan
sg17
F4817796.0
sg18
F0.0
sg19
F2129361025.0
sg20
F365320.0
sg21
F222093.0
sg22
F911453.0
sg23
F0.0
sg24
F19824542530576.0
sg25
F4452476.0
ssS'FOY JOE'
p234
(dp235
g3
Fnan
sg4
Fnan
sg5
I00
sg6
Fnan
sg7
S'tracy.foy@enron.com'
p236
sg9
F0.0
sg10
Fnan
sg11
F12.746750232445345
sg12
F2.0
sg13
Fnan
sg14
Fnan
sg15
F0.0
sg16
Fnan
sg17
F343434.0
sg18
F0.0
sg19
Fnan
sg20
Fnan
sg21
Fnan
sg22
F181755.0
sg23
F0.0
sg24
F117946912356.0
sg25
F343434.0
ssS'CALGER CHRISTOPHER F'
p237
(dp238
g3
F35818.0
sg4
F10.486205839326685
sg5
I01
sg6
F-262500.0
sg7
S'christopher.calger@enron.com'
p239
sg9
F199.0
sg10
Fnan
sg11
Fnan
sg12
F2188.0
sg13
F486.0
sg14
F375304.0
sg15
F0.0
sg16
F1250000.0
sg17
F126027.0
sg18
F25.0
sg19
F1282929124.0
sg20
F126027.0
sg21
F240189.0
sg22
F1639297.0
sg23
F0.0
sg24
Fnan
sg25
Fnan
ssS'RICE KENNETH D'
p240
(dp241
g3
F46950.0
sg4
F10.75683848463641
sg5
I01
sg6
F-3504386.0
sg7
S'ken.rice@enron.com'
p242
sg9
F42.0
sg10
F929336516250.0
sg11
F16.80089826046264
sg12
F864.0
sg13
F174839.0
sg14
F1617011.0
sg15
F0.0
sg16
F1750000.0
sg17
F22542539.0
sg18
F4.0
sg19
F2204302500.0
sg20
F2748364.0
sg21
F420636.0
sg22
F505050.0
sg23
F0.0
sg24
F391809363930625.0
sg25
F19794175.0
ssS'COX DAVID'
p243
(dp244
g3
F27861.0
sg4
F10.234983140444118
sg5
I00
sg6
F-41250.0
sg7
S'chip.cox@enron.com'
p245
sg9
F0.0
sg10
F3275088411.0
sg11
F11.674627560950322
sg12
F71.0
sg13
F494.0
sg14
Fnan
sg15
F0.0
sg16
F800000.0
sg17
F495633.0
sg18
F4.0
sg19
F776235321.0
sg20
F378082.0
sg21
F314288.0
sg22
F1101393.0
sg23
F0.0
sg24
F13818237601.0
sg25
F117551.0
ssS'OVERDYKE JR JERE C'
p246
(dp247
g3
F18834.0
sg4
F9.84341902607001
sg5
I00
sg6
Fnan
sg7
S'jere.overdyke@enron.com'
p248
sg9
Fnan
sg10
F99190730052.0
sg11
F15.47689137374433
sg12
Fnan
sg13
F176.0
sg14
F135836.0
sg15
F0.0
sg16
Fnan
sg17
F7307594.0
sg18
Fnan
sg19
F354719556.0
sg20
F2041016.0
sg21
F94941.0
sg22
F249787.0
sg23
F0.0
sg24
F27736843830084.0
sg25
F5266578.0
ssS'STABLER FRANK'
p249
(dp250
g3
F16514.0
sg4
F9.711963784977375
sg5
I00
sg6
Fnan
sg7
S'frank.stabler@enron.com'
p251
sg9
Fnan
sg10
Fnan
sg11
Fnan
sg12
Fnan
sg13
F356071.0
sg14
Fnan
sg15
F0.0
sg16
F500000.0
sg17
F511734.0
sg18
Fnan
sg19
F272712196.0
sg20
F511734.0
sg21
F239502.0
sg22
F1112087.0
sg23
F0.0
sg24
Fnan
sg25
Fnan
ssS'BLAKE JR. NORMAN P'
p252
(dp253
g3
F1279.0
sg4
F7.153833801578843
sg5
I00
sg6
F-113784.0
sg7
g28
sg9
Fnan
sg10
Fnan
sg11
Fnan
sg12
Fnan
sg13
Fnan
sg14
Fnan
sg15
F0.0
sg16
Fnan
sg17
Fnan
sg18
Fnan
sg19
F1635841.0
sg20
Fnan
sg21
Fnan
sg22
F1279.0
sg23
F0.0
sg24
Fnan
sg25
Fnan
ssS'SHERRICK JEFFREY B'
p254
(dp255
g3
Fnan
sg4
Fnan
sg5
I00
sg6
Fnan
sg7
S'jeffrey.sherrick@enron.com'
p256
sg9
F39.0
sg10
Fnan
sg11
F14.170712717888868
sg12
F583.0
sg13
Fnan
sg14
Fnan
sg15
F0.0
sg16
Fnan
sg17
F1832468.0
sg18
F18.0
sg19
Fnan
sg20
F405999.0
sg21
Fnan
sg22
Fnan
sg23
F0.0
sg24
F2034813807961.0
sg25
F1426469.0
ssS'PRENTICE JAMES'
p257
(dp258
g3
Fnan
sg4
Fnan
sg5
I00
sg6
Fnan
sg7
S'james.prentice@enron.com'
p259
sg9
Fnan
sg10
Fnan
sg11
F13.694732917952683
sg12
Fnan
sg13
Fnan
sg14
Fnan
sg15
F0.0
sg16
Fnan
sg17
F1095040.0
sg18
Fnan
sg19
Fnan
sg20
F208809.0
sg21
Fnan
sg22
F564348.0
sg23
F0.0
sg24
F785405385361.0
sg25
F886231.0
ssS'GRAY RODNEY'
p260
(dp261
g3
Fnan
sg4
Fnan
sg5
I00
sg6
Fnan
sg7
g28
sg9
Fnan
sg10
Fnan
sg11
Fnan
sg12
Fnan
sg13
F680833.0
sg14
F365625.0
sg15
F0.0
sg16
Fnan
sg17
Fnan
sg18
Fnan
sg19
Fnan
sg20
Fnan
sg21
F6615.0
sg22
F1146658.0
sg23
F0.0
sg24
Fnan
sg25
Fnan
ssS'UMANOFF ADAM S'
p262
(dp263
g3
F53122.0
sg4
F10.88034643404396
sg5
I00
sg6
Fnan
sg7
S'adam.umanoff@enron.com'
p264
sg9
F12.0
sg10
Fnan
sg11
Fnan
sg12
F41.0
sg13
Fnan
sg14
Fnan
sg15
F0.0
sg16
F788750.0
sg17
Fnan
sg18
F0.0
sg19
F2821946884.0
sg20
Fnan
sg21
F288589.0
sg22
F1130461.0
sg23
F0.0
sg24
Fnan
sg25
Fnan
ssS'FOWLER PEGGY'
p265
(dp266
g3
Fnan
sg4
Fnan
sg5
I00
sg6
Fnan
sg7
S'kulvinder.fowler@enron.com'
p267
sg9
F0.0
sg10
Fnan
sg11
F14.09660447610753
sg12
F10.0
sg13
Fnan
sg14
Fnan
sg15
F0.0
sg16
Fnan
sg17
F1884748.0
sg18
F0.0
sg19
Fnan
sg20
F560170.0
sg21
Fnan
sg22
Fnan
sg23
F0.0
sg24
F1754506878084.0
sg25
F1324578.0
ssS'WASAFF GEORGE'
p268
(dp269
g3
Fnan
sg4
Fnan
sg5
I00
sg6
F-583325.0
sg7
S'george.wasaff@enron.com'
p270
sg9
F22.0
sg10
Fnan
sg11
F14.327291725053296
sg12
F337.0
sg13
F1425.0
sg14
F200000.0
sg15
F0.0
sg16
F325000.0
sg17
F2056427.0
sg18
F7.0
sg19
Fnan
sg20
F388167.0
sg21
F259996.0
sg22
F1034395.0
sg23
F0.0
sg24
F2783091427600.0
sg25
F1668260.0
ssS'WHITE JR THOMAS E'
p271
(dp272
g3
F81353.0
sg4
F11.306552989656216
sg5
I00
sg6
Fnan
sg7
S'thomas.white@enron.com'
p273
sg9
Fnan
sg10
F105518827297.0
sg11
F14.075602242076087
sg12
Fnan
sg13
F1085463.0
sg14
Fnan
sg15
F0.0
sg16
F450000.0
sg17
F15144123.0
sg18
Fnan
sg19
F6618310609.0
sg20
F13847074.0
sg21
F317543.0
sg22
F1934359.0
sg23
F0.0
sg24
F1682336108401.0
sg25
F1297049.0
ssS'ALLEN PHILLIP K'
p274
(dp275
g3
F13868.0
sg4
F9.537339306804913
sg5
I00
sg6
F-3081055.0
sg7
S'phillip.allen@enron.com'
p276
sg9
F47.0
sg10
F23985274588.0
sg11
F14.363366613351861
sg12
F1407.0
sg13
F152.0
sg14
F304805.0
sg15
F0.0
sg16
F4175000.0
sg17
F1729541.0
sg18
F65.0
sg19
F192321424.0
sg20
F126027.0
sg21
F201955.0
sg22
F4484442.0
sg23
F0.0
sg24
F2991312070681.0
sg25
F1729541.0
ssS'SHARP VICTORIA T'
p277
(dp278
g3
F116337.0
sg4
F11.664246430644395
sg5
I00
sg6
Fnan
sg7
S'vicki.sharp@enron.com'
p279
sg9
F24.0
sg10
F32699189601.0
sg11
F12.546369701054088
sg12
F2477.0
sg13
F2401.0
sg14
F422158.0
sg15
F0.0
sg16
F600000.0
sg17
F494136.0
sg18
F6.0
sg19
F13534297569.0
sg20
F213063.0
sg21
F248146.0
sg22
F1576511.0
sg23
F0.0
sg24
F79002031329.0
sg25
F281073.0
ssS'JAEDICKE ROBERT'
p280
(dp281
g3
Fnan
sg4
Fnan
sg5
I00
sg6
F-25000.0
sg7
g28
sg9
Fnan
sg10
Fnan
sg11
F12.975601996008924
sg12
Fnan
sg13
Fnan
sg14
Fnan
sg15
F0.0
sg16
Fnan
sg17
F431750.0
sg18
Fnan
sg19
Fnan
sg20
F44093.0
sg21
Fnan
sg22
F83750.0
sg23
F0.0
sg24
F186408062500.0
sg25
F431750.0
ssS'WINOKUR JR. HERBERT S'
p282
(dp283
g3
F1413.0
sg4
F7.253470382684528
sg5
I00
sg6
F-25000.0
sg7
g28
sg9
Fnan
sg10
Fnan
sg11
Fnan
sg12
Fnan
sg13
Fnan
sg14
Fnan
sg15
F0.0
sg16
Fnan
sg17
Fnan
sg18
Fnan
sg19
F1996569.0
sg20
Fnan
sg21
Fnan
sg22
F84992.0
sg23
F0.0
sg24
Fnan
sg25
Fnan
ssS'BROWN MICHAEL'
p284
(dp285
g3
F49288.0
sg4
F10.805435922694407
sg5
I00
sg6
Fnan
sg7
S'michael.brown@enron.com'
p286
sg9
F13.0
sg10
Fnan
sg11
Fnan
sg12
F761.0
sg13
Fnan
sg14
Fnan
sg15
F0.0
sg16
Fnan
sg17
Fnan
sg18
F1.0
sg19
F2429306944.0
sg20
Fnan
sg21
Fnan
sg22
F49288.0
sg23
F0.0
sg24
Fnan
sg25
Fnan
ssS'MCCLELLAN GEORGE'
p287
(dp288
g3
F228763.0
sg4
F12.340441812124062
sg5
I00
sg6
F-125000.0
sg7
S'george.mcclellan@enron.com'
p289
sg9
F52.0
sg10
F115929081695.0
sg11
F13.135802664270836
sg12
F1469.0
sg13
F51587.0
sg14
Fnan
sg15
F0.0
sg16
F900000.0
sg17
F947861.0
sg18
F0.0
sg19
F52332510169.0
sg20
F441096.0
sg21
F263413.0
sg22
F1318763.0
sg23
F0.0
sg24
F256810765225.0
sg25
F506765.0
ssS'HUGHES JAMES A'
p290
(dp291
g3
Fnan
sg4
Fnan
sg5
I00
sg6
Fnan
sg7
S'james.hughes@enron.com'
p292
sg9
F35.0
sg10
Fnan
sg11
F13.534427994104558
sg12
F589.0
sg13
Fnan
sg14
Fnan
sg15
F0.0
sg16
Fnan
sg17
F1118394.0
sg18
F5.0
sg19
Fnan
sg20
F363428.0
sg21
Fnan
sg22
Fnan
sg23
F0.0
sg24
F569973661156.0
sg25
F754966.0
ssS'REYNOLDS LAWRENCE'
p293
(dp294
g3
F8409.0
sg4
F9.037057839832897
sg5
I00
sg6
F-200000.0
sg7
g28
sg9
Fnan
sg10
F34987090848.0
sg11
F15.241187157653052
sg12
Fnan
sg13
F202052.0
sg14
F156250.0
sg15
F0.0
sg16
F100000.0
sg17
F4221891.0
sg18
Fnan
sg19
F70711281.0
sg20
F201483.0
sg21
F76399.0
sg22
F394475.0
sg23
F0.0
sg24
F17311191491584.0
sg25
F4160672.0
ssS'PICKERING MARK R'
p295
(dp296
g3
F31653.0
sg4
F10.362588209810202
sg5
I00
sg6
Fnan
sg7
S'mark.pickering@enron.com'
p297
sg9
F7.0
sg10
F911543094.0
sg11
F10.268061219268215
sg12
F728.0
sg13
Fnan
sg14
Fnan
sg15
F0.0
sg16
F300000.0
sg17
F28798.0
sg18
F0.0
sg19
F1001912409.0
sg20
Fnan
sg21
F655037.0
sg22
F1386690.0
sg23
F0.0
sg24
F829324804.0
sg25
F28798.0
ssS'BHATNAGAR SANJAY'
p298
(dp299
g3
Fnan
sg4
Fnan
sg5
I00
sg6
Fnan
sg7
S'sanjay.bhatnagar@enron.com'
p300
sg9
F0.0
sg10
Fnan
sg11
F14.77274743665147
sg12
F463.0
sg13
F137864.0
sg14
Fnan
sg15
F0.0
sg16
Fnan
sg17
Fnan
sg18
F1.0
sg19
Fnan
sg20
F-2604490.0
sg21
Fnan
sg22
F15456290.0
sg23
F0.0
sg24
F6783368160100.0
sg25
F2604490.0
ssS'CARTER REBECCA C'
p301
(dp302
g3
Fnan
sg4
Fnan
sg5
I00
sg6
F-159792.0
sg7
S'rebecca.carter@enron.com'
p303
sg9
F29.0
sg10
Fnan
sg11
Fnan
sg12
F196.0
sg13
F540.0
sg14
F75000.0
sg15
F0.0
sg16
F300000.0
sg17
Fnan
sg18
F7.0
sg19
Fnan
sg20
F307301.0
sg21
F261809.0
sg22
F477557.0
sg23
F0.0
sg24
Fnan
sg25
Fnan
ssS'BUCHANAN HAROLD G'
p304
(dp305
g3
F600.0
sg4
F6.396929655216146
sg5
I00
sg6
Fnan
sg7
S'john.buchanan@enron.com'
p306
sg9
F0.0
sg10
F495278400.0
sg11
F13.623700931458005
sg12
F23.0
sg13
F1215.0
sg14
F304805.0
sg15
F0.0
sg16
F500000.0
sg17
F1014505.0
sg18
F0.0
sg19
F360000.0
sg20
F189041.0
sg21
F248017.0
sg22
F1054637.0
sg23
F0.0
sg24
F681390815296.0
sg25
F825464.0
ssS'YEAP SOON'
p307
(dp308
g3
F55097.0
sg4
F10.916850547197763
sg5
I00
sg6
Fnan
sg7
g28
sg9
Fnan
sg10
F10620387526.0
sg11
F12.169190795103844
sg12
Fnan
sg13
Fnan
sg14
Fnan
sg15
F0.0
sg16
Fnan
sg17
F192758.0
sg18
Fnan
sg19
F3035679409.0
sg20
Fnan
sg21
Fnan
sg22
F55097.0
sg23
F0.0
sg24
F37155646564.0
sg25
F192758.0
ssS'MURRAY JULIA H'
p309
(dp310
g3
F57580.0
sg4
F10.960930564166167
sg5
I00
sg6
Fnan
sg7
S'julia.murray@enron.com'
p311
sg9
F11.0
sg10
F23059523240.0
sg11
F12.90041411264594
sg12
F395.0
sg13
F330.0
sg14
F125000.0
sg15
F0.0
sg16
F400000.0
sg17
F597461.0
sg18
F2.0
sg19
F3315456400.0
sg20
F196983.0
sg21
F229284.0
sg22
F812194.0
sg23
F0.0
sg24
F160382628484.0
sg25
F400478.0
ssS'GARLAND C KEVIN'
p312
(dp313
g3
F48405.0
sg4
F10.787358393154172
sg5
I00
sg6
Fnan
sg7
S'kevin.garland@enron.com'
p314
sg9
F10.0
sg10
F30797487630.0
sg11
F13.363340559990172
sg12
F178.0
sg13
F60814.0
sg14
F375304.0
sg15
F0.0
sg16
F850000.0
sg17
F896153.0
sg18
F27.0
sg19
F2343044025.0
sg20
F259907.0
sg21
F231946.0
sg22
F1566469.0
sg23
F0.0
sg24
F404808972516.0
sg25
F636246.0
ssS'DODSON KEITH'
p315
(dp316
g3
F28164.0
sg4
F10.245799845639024
sg5
I00
sg6
Fnan
sg7
S'keith.dodson@enron.com'
p317
sg9
F10.0
sg10
Fnan
sg11
Fnan
sg12
F114.0
sg13
F774.0
sg14
Fnan
sg15
F0.0
sg16
F70000.0
sg17
Fnan
sg18
F3.0
sg19
F793210896.0
sg20
Fnan
sg21
F221003.0
sg22
F319941.0
sg23
F0.0
sg24
Fnan
sg25
Fnan
ssS'YEAGER F SCOTT'
p318
(dp319
g3
F53947.0
sg4
F10.895757362096592
sg5
I01
sg6
Fnan
sg7
S'scott.yeager@enron.com'
p320
sg9
Fnan
sg10
F448221454744.0
sg11
F15.932795903754599
sg12
Fnan
sg13
F147950.0
sg14
Fnan
sg15
F0.0
sg16
Fnan
sg17
F11884758.0
sg18
Fnan
sg19
F2910278809.0
sg20
F3576206.0
sg21
F158403.0
sg22
F360300.0
sg23
F0.0
sg24
F69032036336704.0
sg25
F8308552.0
ssS'HIRKO JOSEPH'
p321
(dp322
g3
F77978.0
sg4
F11.264182014605733
sg5
I01
sg6
Fnan
sg7
S'joe.hirko@enron.com'
p323
sg9
Fnan
sg10
F2399076138592.0
sg11
F17.24192282231409
sg12
Fnan
sg13
F2856.0
sg14
Fnan
sg15
F0.0
sg16
Fnan
sg17
F30766064.0
sg18
Fnan
sg19
F6080568484.0
sg20
Fnan
sg21
Fnan
sg22
F91093.0
sg23
F0.0
sg24
F946550694052096.0
sg25
F30766064.0
ssS'DIETRICH JANET R'
p324
(dp325
g3
F3475.0
sg4
F8.153349757998892
sg5
I00
sg6
Fnan
sg7
S'janet.dietrich@enron.com'
p326
sg9
F305.0
sg10
F5386316025.0
sg11
F14.253777746884817
sg12
F1902.0
sg13
F473.0
sg14
F556416.0
sg15
F0.0
sg16
F600000.0
sg17
F1865087.0
sg18
F14.0
sg19
F12075625.0
sg20
F315068.0
sg21
F250100.0
sg22
F1410464.0
sg23
F0.0
sg24
F2402558900361.0
sg25
F1550019.0
ssS'DERRICK JR. JAMES V'
p327
(dp328
g3
F51124.0
sg4
F10.842009333251605
sg5
I00
sg6
F-1284000.0
sg7
S'james.derrick@enron.com'
p329
sg9
F64.0
sg10
F451522720212.0
sg11
F15.993882196907018
sg12
F1401.0
sg13
F7482.0
sg14
F484000.0
sg15
F0.0
sg16
F800000.0
sg17
F8831913.0
sg18
F20.0
sg19
F2613663376.0
sg20
F1787380.0
sg21
F492375.0
sg22
F550981.0
sg23
F0.0
sg24
F78002687239569.0
sg25
F8831913.0
ssS'HAYSLETT RODERICK J'
p330
(dp331
g3
Fnan
sg4
Fnan
sg5
I00
sg6
Fnan
sg7
S'rod.hayslett@enron.com'
p332
sg9
F35.0
sg10
Fnan
sg11
Fnan
sg12
F571.0
sg13
Fnan
sg14
Fnan
sg15
F0.0
sg16
Fnan
sg17
F346663.0
sg18
F38.0
sg19
Fnan
sg20
F346663.0
sg21
Fnan
sg22
Fnan
sg23
F0.0
sg24
Fnan
sg25
Fnan
ssS'BAY FRANKLIN R'
p333
(dp334
g3
F129142.0
sg4
F11.768667853128832
sg5
I00
sg6
F-201641.0
sg7
S'frank.bay@enron.com'
p335
sg9
Fnan
sg10
Fnan
sg11
Fnan
sg12
Fnan
sg13
F69.0
sg14
Fnan
sg15
F0.0
sg16
F400000.0
sg17
F63014.0
sg18
Fnan
sg19
F16677656164.0
sg20
F145796.0
sg21
F239671.0
sg22
F827696.0
sg23
F0.0
sg24
Fnan
sg25
Fnan
ssS'MCCARTY DANNY J'
p336
(dp337
g3
Fnan
sg4
Fnan
sg5
I00
sg6
Fnan
sg7
S'danny.mccarty@enron.com'
p338
sg9
F25.0
sg10
Fnan
sg11
F13.40660202807835
sg12
F508.0
sg13
Fnan
sg14
Fnan
sg15
F0.0
sg16
Fnan
sg17
F758931.0
sg18
F2.0
sg19
Fnan
sg20
F94556.0
sg21
Fnan
sg22
Fnan
sg23
F0.0
sg24
F441394140625.0
sg25
F664375.0
ssS'FUGH JOHN L'
p339
(dp340
g3
Fnan
sg4
Fnan
sg5
I00
sg6
Fnan
sg7
g28
sg9
Fnan
sg10
Fnan
sg11
F12.080384698223783
sg12
Fnan
sg13
Fnan
sg14
Fnan
sg15
F0.0
sg16
Fnan
sg17
F176378.0
sg18
Fnan
sg19
Fnan
sg20
Fnan
sg21
Fnan
sg22
F50591.0
sg23
F0.0
sg24
F31109198884.0
sg25
F176378.0
ssS'DEFFNER JOSEPH M'
p341
(dp342
g3
F41626.0
sg4
F10.636480251018197
sg5
I00
sg6
Fnan
sg7
S'joseph.deffner@enron.com'
p343
sg9
F115.0
sg10
F723376628.0
sg11
F9.762960317399152
sg12
F552.0
sg13
F25553.0
sg14
F335349.0
sg15
F0.0
sg16
F600000.0
sg17
F159211.0
sg18
F4.0
sg19
F1732723876.0
sg20
F141833.0
sg21
F206121.0
sg22
F1208649.0
sg23
F0.0
sg24
F301994884.0
sg25
F17378.0
ssS'FALLON JAMES B'
p344
(dp345
g3
F95924.0
sg4
F11.471311490249764
sg5
I00
sg6
Fnan
sg7
S'jim.fallon@enron.com'
p346
sg9
F42.0
sg10
F90193212468.0
sg11
F13.753908521133374
sg12
F1604.0
sg13
F401481.0
sg14
F374347.0
sg15
F0.0
sg16
F2500000.0
sg17
F2332399.0
sg18
F37.0
sg19
F9201413776.0
sg20
F1392142.0
sg21
F304588.0
sg22
F3676340.0
sg23
F0.0
sg24
F884083226049.0
sg25
F940257.0
ssS'KOENIG MARK E'
p347
(dp348
g3
F127017.0
sg4
F11.752076214750227
sg5
I01
sg6
Fnan
sg7
S'mark.koenig@enron.com'
p349
sg9
F53.0
sg10
F85322018529.0
sg11
F13.417622173852815
sg12
F2271.0
sg13
F150458.0
sg14
F300000.0
sg15
F0.0
sg16
F700000.0
sg17
F1920055.0
sg18
F15.0
sg19
F16133318289.0
sg20
F1248318.0
sg21
F309946.0
sg22
F1587421.0
sg23
F0.0
sg24
F451230597169.0
sg25
F671737.0
ssS'IZZO LAWRENCE L'
p350
(dp351
g3
F28093.0
sg4
F10.243275713968423
sg5
I00
sg6
Fnan
sg7
S'larry.izzo@enron.com'
p352
sg9
F28.0
sg10
F60826176996.0
sg11
F14.588010361990566
sg12
F437.0
sg13
F1553729.0
sg14
F312500.0
sg15
F0.0
sg16
Fnan
sg17
F5819980.0
sg18
F5.0
sg19
F789216649.0
sg20
F3654808.0
sg21
F85274.0
sg22
F1979596.0
sg23
F0.0
sg24
F4687969789584.0
sg25
F2165172.0
ssS'TILNEY ELIZABETH A'
p353
(dp354
g3
Fnan
sg4
Fnan
sg5
I00
sg6
F-575000.0
sg7
S'elizabeth.tilney@enron.com'
p355
sg9
F10.0
sg10
Fnan
sg11
F13.28999421878828
sg12
F379.0
sg13
F152055.0
sg14
F275000.0
sg15
F0.0
sg16
F300000.0
sg17
F1168042.0
sg18
F11.0
sg19
Fnan
sg20
F576792.0
sg21
F247338.0
sg22
F399393.0
sg23
F0.0
sg24
F349576562500.0
sg25
F591250.0
ssS'MARTIN AMANDA K'
p356
(dp357
g3
F8211.0
sg4
F9.01322999770879
sg5
I00
sg6
Fnan
sg7
S'a..martin@enron.com'
p358
sg9
F8.0
sg10
F16999282566.0
sg11
F14.543206980403308
sg12
F477.0
sg13
F2818454.0
sg14
F5145434.0
sg15
F0.0
sg16
Fnan
sg17
F2070306.0
sg18
F0.0
sg19
F67420521.0
sg20
Fnan
sg21
F349487.0
sg22
F8407016.0
sg23
F0.0
sg24
F4286166933636.0
sg25
F2070306.0
ssS'BUY RICHARD B'
p359
(dp360
g3
Fnan
sg4
Fnan
sg5
I00
sg6
F-694862.0
sg7
S'rick.buy@enron.com'
p361
sg9
F156.0
sg10
Fnan
sg11
F14.74878150650576
sg12
F2333.0
sg13
F400572.0
sg14
F769862.0
sg15
F0.0
sg16
F900000.0
sg17
F3444470.0
sg18
F71.0
sg19
Fnan
sg20
F901657.0
sg21
F330546.0
sg22
F2355702.0
sg23
F0.0
sg24
F6465897952969.0
sg25
F2542813.0
ssS'CAUSEY RICHARD A'
p362
(dp363
g3
F30674.0
sg4
F10.331170669210724
sg5
I01
sg6
F-235000.0
sg7
S'richard.causey@enron.com'
p364
sg9
F58.0
sg10
Fnan
sg11
Fnan
sg12
F1585.0
sg13
F307895.0
sg14
F350000.0
sg15
F0.0
sg16
F1000000.0
sg17
F2502063.0
sg18
F12.0
sg19
F940894276.0
sg20
F2502063.0
sg21
F415189.0
sg22
F1868758.0
sg23
F0.0
sg24
Fnan
sg25
Fnan
ssS'TAYLOR MITCHELL S'
p365
(dp366
g3
Fnan
sg4
Fnan
sg5
I00
sg6
Fnan
sg7
S'mitchell.taylor@enron.com'
p367
sg9
F0.0
sg10
Fnan
sg11
F14.97278475928097
sg12
F300.0
sg13
Fnan
sg14
Fnan
sg15
F0.0
sg16
F600000.0
sg17
F3745048.0
sg18
F0.0
sg19
Fnan
sg20
F563798.0
sg21
F265214.0
sg22
F1092663.0
sg23
F0.0
sg24
F10120351562500.0
sg25
F3181250.0
ssS'DONAHUE JR JEFFREY M'
p368
(dp369
g3
F96268.0
sg4
F11.474891247652295
sg5
I00
sg6
F-300000.0
sg7
S'jeff.donahue@enron.com'
p370
sg9
F188.0
sg10
F73733586560.0
sg11
F13.548833004626337
sg12
F772.0
sg13
F891.0
sg14
Fnan
sg15
F0.0
sg16
F800000.0
sg17
F1080988.0
sg18
F11.0
sg19
F9267527824.0
sg20
F315068.0
sg21
F278601.0
sg22
F875760.0
sg23
F0.0
sg24
F586633446400.0
sg25
F765920.0
ssS'GLISAN JR BEN F'
p371
(dp372
g3
F125978.0
sg4
F11.743862567514103
sg5
I01
sg6
Fnan
sg7
S'ben.glisan@enron.com'
p373
sg9
F52.0
sg10
F48467263984.0
sg11
F12.860291870079283
sg12
F874.0
sg13
F200308.0
sg14
F71023.0
sg15
F0.0
sg16
F600000.0
sg17
F778546.0
sg18
F6.0
sg19
F15870456484.0
sg20
F393818.0
sg21
F274975.0
sg22
F1272284.0
sg23
F0.0
sg24
F148015633984.0
sg25
F384728.0
ss.