(lp0
S'poi'
p1
aS'total_payments'
p2
aS'bonus'
p3
aS'expenses'
p4
aS'total_stock_value'
p5
aS'salary'
p6
aS'exercised_stock_options'
p7
aS'restricted_stock'
p8
aS'shared_receipt_with_poi'
p9
aS'other'
p10
aS'from_this_person_to_poi'
p11
aS'deferred_income'
p12
aS'long_term_incentive'
p13
aS'from_poi_to_this_person'
p14
aS'exercised_stock_options^2'
p15
aS'log_exercised_stock_options'
p16
aS'exercised_stock_options*expenses'
p17
aS'expenses^2'
p18
aS'log_expenses'
p19
aS'gwhalleynsf'
p20
aS'cdwr'
p21
a.