(lp0
S'poi'
p1
aS'salary'
p2
aS'to_messages'
p3
aS'deferral_payments'
p4
aS'total_payments'
p5
aS'exercised_stock_options'
p6
aS'bonus'
p7
aS'restricted_stock'
p8
aS'shared_receipt_with_poi'
p9
aS'total_stock_value'
p10
aS'expenses'
p11
aS'from_messages'
p12
aS'other'
p13
aS'from_this_person_to_poi'
p14
aS'deferred_income'
p15
aS'long_term_incentive'
p16
aS'from_poi_to_this_person'
p17
aS'total_payments^2'
p18
aS'log_total_payments'
p19
aS'total_payments*bonus'
p20
aS'total_payments*expenses'
p21
aS'total_payments*total_stock_value'
p22
aS'total_payments*salary'
p23
aS'total_payments*exercised_stock_options'
p24
aS'total_payments*restricted_stock'
p25
aS'total_payments*shared_receipt_with_poi'
p26
aS'total_payments*other'
p27
aS'total_payments*from_this_person_to_poi'
p28
aS'total_payments*deferred_income'
p29
aS'total_payments*long_term_incentive'
p30
aS'total_payments*from_poi_to_this_person'
p31
aS'bonus^2'
p32
aS'log_bonus'
p33
aS'bonus*expenses'
p34
aS'bonus*total_stock_value'
p35
aS'bonus*salary'
p36
aS'bonus*exercised_stock_options'
p37
aS'bonus*restricted_stock'
p38
aS'bonus*shared_receipt_with_poi'
p39
aS'bonus*other'
p40
aS'bonus*from_this_person_to_poi'
p41
aS'bonus*deferred_income'
p42
aS'bonus*long_term_incentive'
p43
aS'bonus*from_poi_to_this_person'
p44
aS'expenses^2'
p45
aS'log_expenses'
p46
aS'expenses*total_stock_value'
p47
aS'expenses*salary'
p48
aS'expenses*exercised_stock_options'
p49
aS'expenses*restricted_stock'
p50
aS'expenses*shared_receipt_with_poi'
p51
aS'expenses*other'
p52
aS'expenses*from_this_person_to_poi'
p53
aS'expenses*deferred_income'
p54
aS'expenses*long_term_incentive'
p55
aS'expenses*from_poi_to_this_person'
p56
aS'total_stock_value^2'
p57
aS'log_total_stock_value'
p58
aS'total_stock_value*salary'
p59
aS'total_stock_value*exercised_stock_options'
p60
aS'total_stock_value*restricted_stock'
p61
aS'total_stock_value*shared_receipt_with_poi'
p62
aS'total_stock_value*other'
p63
aS'total_stock_value*from_this_person_to_poi'
p64
aS'total_stock_value*deferred_income'
p65
aS'total_stock_value*long_term_incentive'
p66
aS'total_stock_value*from_poi_to_this_person'
p67
aS'salary^2'
p68
aS'log_salary'
p69
aS'salary*exercised_stock_options'
p70
aS'salary*restricted_stock'
p71
aS'salary*shared_receipt_with_poi'
p72
aS'salary*other'
p73
aS'salary*from_this_person_to_poi'
p74
aS'salary*deferred_income'
p75
aS'salary*long_term_incentive'
p76
aS'salary*from_poi_to_this_person'
p77
aS'exercised_stock_options^2'
p78
aS'log_exercised_stock_options'
p79
aS'exercised_stock_options*restricted_stock'
p80
aS'exercised_stock_options*shared_receipt_with_poi'
p81
aS'exercised_stock_options*other'
p82
aS'exercised_stock_options*from_this_person_to_poi'
p83
aS'exercised_stock_options*deferred_income'
p84
aS'exercised_stock_options*long_term_incentive'
p85
aS'exercised_stock_options*from_poi_to_this_person'
p86
aS'restricted_stock^2'
p87
aS'log_restricted_stock'
p88
aS'restricted_stock*shared_receipt_with_poi'
p89
aS'restricted_stock*other'
p90
aS'restricted_stock*from_this_person_to_poi'
p91
aS'restricted_stock*deferred_income'
p92
aS'restricted_stock*long_term_incentive'
p93
aS'restricted_stock*from_poi_to_this_person'
p94
aS'shared_receipt_with_poi^2'
p95
aS'log_shared_receipt_with_poi'
p96
aS'shared_receipt_with_poi*other'
p97
aS'shared_receipt_with_poi*from_this_person_to_poi'
p98
aS'shared_receipt_with_poi*deferred_income'
p99
aS'shared_receipt_with_poi*long_term_incentive'
p100
aS'shared_receipt_with_poi*from_poi_to_this_person'
p101
aS'other^2'
p102
aS'log_other'
p103
aS'other*from_this_person_to_poi'
p104
aS'other*deferred_income'
p105
aS'other*long_term_incentive'
p106
aS'other*from_poi_to_this_person'
p107
aS'from_this_person_to_poi^2'
p108
aS'log_from_this_person_to_poi'
p109
aS'from_this_person_to_poi*deferred_income'
p110
aS'from_this_person_to_poi*long_term_incentive'
p111
aS'from_this_person_to_poi*from_poi_to_this_person'
p112
aS'deferred_income^2'
p113
aS'log_deferred_income'
p114
aS'deferred_income*long_term_incentive'
p115
aS'deferred_income*from_poi_to_this_person'
p116
aS'long_term_incentive^2'
p117
aS'log_long_term_incentive'
p118
aS'long_term_incentive*from_poi_to_this_person'
p119
aS'from_poi_to_this_person^2'
p120
aS'log_from_poi_to_this_person'
p121
aVariba
p122
aVbelden
p123
aVcolwel
p124
aVcommitte
p125
aVcp
p126
aVdate
p127
aVdelainey
p128
aVeast
p129
aVenw
p130
aVfeedbacksupport
p131
aVfirstcallnotestfncom
p132
aVfund
p133
aVklay
p134
aVmemo
p135
aVmmcconnnsf
p136
aVmorton
p137
aVparticip
p138
aVphenomen
p139
aVpictur
p140
aVpublish
p141
aVrbuynsf
p142
aVregard
p143
aVroom
p144
aVschedul
p145
aVsun
p146
aVtour
p147
aVview
p148
a.